   1               		.file	"fc.c"
   2               	__SREG__ = 0x3f
   3               	__SP_H__ = 0x3e
   4               	__SP_L__ = 0x3d
   5               	__tmp_reg__ = 0
   6               	__zero_reg__ = 1
   7               		.global __do_copy_data
   8               		.global __do_clear_bss
   9               		.text
  10               	.global	Mittelwert
  12               	Mittelwert:
  13               	/* prologue: frame size=2 */
  14 0000 2F92      		push r2
  15 0002 3F92      		push r3
  16 0004 4F92      		push r4
  17 0006 5F92      		push r5
  18 0008 6F92      		push r6
  19 000a 7F92      		push r7
  20 000c 8F92      		push r8
  21 000e 9F92      		push r9
  22 0010 AF92      		push r10
  23 0012 BF92      		push r11
  24 0014 CF92      		push r12
  25 0016 DF92      		push r13
  26 0018 EF92      		push r14
  27 001a FF92      		push r15
  28 001c 0F93      		push r16
  29 001e 1F93      		push r17
  30 0020 CF93      		push r28
  31 0022 DF93      		push r29
  32 0024 CDB7      		in r28,__SP_L__
  33 0026 DEB7      		in r29,__SP_H__
  34 0028 2297      		sbiw r28,2
  35 002a 0FB6      		in __tmp_reg__,__SREG__
  36 002c F894      		cli
  37 002e DEBF      		out __SP_H__,r29
  38 0030 0FBE      		out __SREG__,__tmp_reg__
  39 0032 CDBF      		out __SP_L__,r28
  40               	/* prologue end (size=26) */
  41 0034 8091 0000 		lds r24,AdNeutralGier
  42 0038 9091 0000 		lds r25,(AdNeutralGier)+1
  43 003c 2091 0000 		lds r18,AdWertGier
  44 0040 3091 0000 		lds r19,(AdWertGier)+1
  45 0044 821B      		sub r24,r18
  46 0046 930B      		sbc r25,r19
  47 0048 9093 0000 		sts (MesswertGier)+1,r25
  48 004c 8093 0000 		sts MesswertGier,r24
  49 0050 8091 0000 		lds r24,AdWertRoll
  50 0054 9091 0000 		lds r25,(AdWertRoll)+1
  51 0058 2091 0000 		lds r18,AdNeutralRoll
  52 005c 3091 0000 		lds r19,(AdNeutralRoll)+1
  53 0060 821B      		sub r24,r18
  54 0062 930B      		sbc r25,r19
  55 0064 9093 0000 		sts (MesswertRoll)+1,r25
  56 0068 8093 0000 		sts MesswertRoll,r24
  57 006c 8091 0000 		lds r24,AdWertNick
  58 0070 9091 0000 		lds r25,(AdWertNick)+1
  59 0074 2091 0000 		lds r18,AdNeutralNick
  60 0078 3091 0000 		lds r19,(AdNeutralNick)+1
  61 007c 821B      		sub r24,r18
  62 007e 930B      		sbc r25,r19
  63 0080 9093 0000 		sts (MesswertNick)+1,r25
  64 0084 8093 0000 		sts MesswertNick,r24
  65 0088 8091 0000 		lds r24,MesswertRoll
  66 008c 9091 0000 		lds r25,(MesswertRoll)+1
  67 0090 9093 0000 		sts (DebugOut+58)+1,r25
  68 0094 8093 0000 		sts DebugOut+58,r24
  69 0098 E090 0000 		lds r14,Mittelwert_AccNick
  70 009c F090 0000 		lds r15,(Mittelwert_AccNick)+1
  71 00a0 6091 0000 		lds r22,AdWertAccNick
  72 00a4 7091 0000 		lds r23,(AdWertAccNick)+1
  73 00a8 8827      		clr r24
  74 00aa 77FD      		sbrc r23,7
  75 00ac 8095      		com r24
  76 00ae 982F      		mov r25,r24
  77 00b0 2CE0      		ldi r18,lo8(12)
  78 00b2 30E0      		ldi r19,hi8(12)
  79 00b4 40E0      		ldi r20,hlo8(12)
  80 00b6 50E0      		ldi r21,hhi8(12)
  81 00b8 0E94 0000 		call __mulsi3
  82 00bc 0027      		clr r16
  83 00be F7FC      		sbrc r15,7
  84 00c0 0095      		com r16
  85 00c2 102F      		mov r17,r16
  86 00c4 E60E      		add r14,r22
  87 00c6 F71E      		adc r15,r23
  88 00c8 081F      		adc r16,r24
  89 00ca 191F      		adc r17,r25
  90 00cc C801      		movw r24,r16
  91 00ce B701      		movw r22,r14
  92 00d0 22E0      		ldi r18,lo8(2)
  93 00d2 30E0      		ldi r19,hi8(2)
  94 00d4 40E0      		ldi r20,hlo8(2)
  95 00d6 50E0      		ldi r21,hhi8(2)
  96 00d8 0E94 0000 		call __divmodsi4
  97 00dc 3093 0000 		sts (Mittelwert_AccNick)+1,r19
  98 00e0 2093 0000 		sts Mittelwert_AccNick,r18
  99 00e4 E090 0000 		lds r14,Mittelwert_AccRoll
 100 00e8 F090 0000 		lds r15,(Mittelwert_AccRoll)+1
 101 00ec 6091 0000 		lds r22,AdWertAccRoll
 102 00f0 7091 0000 		lds r23,(AdWertAccRoll)+1
 103 00f4 8827      		clr r24
 104 00f6 77FD      		sbrc r23,7
 105 00f8 8095      		com r24
 106 00fa 982F      		mov r25,r24
 107 00fc 2CE0      		ldi r18,lo8(12)
 108 00fe 30E0      		ldi r19,hi8(12)
 109 0100 40E0      		ldi r20,hlo8(12)
 110 0102 50E0      		ldi r21,hhi8(12)
 111 0104 0E94 0000 		call __mulsi3
 112 0108 0027      		clr r16
 113 010a F7FC      		sbrc r15,7
 114 010c 0095      		com r16
 115 010e 102F      		mov r17,r16
 116 0110 E60E      		add r14,r22
 117 0112 F71E      		adc r15,r23
 118 0114 081F      		adc r16,r24
 119 0116 191F      		adc r17,r25
 120 0118 C801      		movw r24,r16
 121 011a B701      		movw r22,r14
 122 011c 22E0      		ldi r18,lo8(2)
 123 011e 30E0      		ldi r19,hi8(2)
 124 0120 40E0      		ldi r20,hlo8(2)
 125 0122 50E0      		ldi r21,hhi8(2)
 126 0124 0E94 0000 		call __divmodsi4
 127 0128 3093 0000 		sts (Mittelwert_AccRoll)+1,r19
 128 012c 2093 0000 		sts Mittelwert_AccRoll,r18
 129 0130 2091 0000 		lds r18,Mittelwert_AccHoch
 130 0134 3091 0000 		lds r19,(Mittelwert_AccHoch)+1
 131 0138 6091 0000 		lds r22,AdWertAccHoch
 132 013c 7091 0000 		lds r23,(AdWertAccHoch)+1
 133 0140 8827      		clr r24
 134 0142 77FD      		sbrc r23,7
 135 0144 8095      		com r24
 136 0146 982F      		mov r25,r24
 137 0148 4427      		clr r20
 138 014a 37FD      		sbrc r19,7
 139 014c 4095      		com r20
 140 014e 542F      		mov r21,r20
 141 0150 620F      		add r22,r18
 142 0152 731F      		adc r23,r19
 143 0154 841F      		adc r24,r20
 144 0156 951F      		adc r25,r21
 145 0158 22E0      		ldi r18,lo8(2)
 146 015a 30E0      		ldi r19,hi8(2)
 147 015c 40E0      		ldi r20,hlo8(2)
 148 015e 50E0      		ldi r21,hhi8(2)
 149 0160 0E94 0000 		call __divmodsi4
 150 0164 3093 0000 		sts (Mittelwert_AccHoch)+1,r19
 151 0168 2093 0000 		sts Mittelwert_AccHoch,r18
 152 016c 4091 0000 		lds r20,IntegralAccNick
 153 0170 5091 0000 		lds r21,(IntegralAccNick)+1
 154 0174 6091 0000 		lds r22,(IntegralAccNick)+2
 155 0178 7091 0000 		lds r23,(IntegralAccNick)+3
 156 017c 2091 0000 		lds r18,AdWertAccNick
 157 0180 3091 0000 		lds r19,(AdWertAccNick)+1
 158 0184 C901      		movw r24,r18
 159 0186 880F      		lsl r24
 160 0188 991F      		rol r25
 161 018a 820F      		add r24,r18
 162 018c 931F      		adc r25,r19
 163 018e 880F      		lsl r24
 164 0190 991F      		rol r25
 165 0192 880F      		lsl r24
 166 0194 991F      		rol r25
 167 0196 AA27      		clr r26
 168 0198 97FD      		sbrc r25,7
 169 019a A095      		com r26
 170 019c BA2F      		mov r27,r26
 171 019e 840F      		add r24,r20
 172 01a0 951F      		adc r25,r21
 173 01a2 A61F      		adc r26,r22
 174 01a4 B71F      		adc r27,r23
 175 01a6 8093 0000 		sts IntegralAccNick,r24
 176 01aa 9093 0000 		sts (IntegralAccNick)+1,r25
 177 01ae A093 0000 		sts (IntegralAccNick)+2,r26
 178 01b2 B093 0000 		sts (IntegralAccNick)+3,r27
 179 01b6 4091 0000 		lds r20,IntegralAccRoll
 180 01ba 5091 0000 		lds r21,(IntegralAccRoll)+1
 181 01be 6091 0000 		lds r22,(IntegralAccRoll)+2
 182 01c2 7091 0000 		lds r23,(IntegralAccRoll)+3
 183 01c6 2091 0000 		lds r18,AdWertAccRoll
 184 01ca 3091 0000 		lds r19,(AdWertAccRoll)+1
 185 01ce C901      		movw r24,r18
 186 01d0 880F      		lsl r24
 187 01d2 991F      		rol r25
 188 01d4 820F      		add r24,r18
 189 01d6 931F      		adc r25,r19
 190 01d8 880F      		lsl r24
 191 01da 991F      		rol r25
 192 01dc 880F      		lsl r24
 193 01de 991F      		rol r25
 194 01e0 AA27      		clr r26
 195 01e2 97FD      		sbrc r25,7
 196 01e4 A095      		com r26
 197 01e6 BA2F      		mov r27,r26
 198 01e8 840F      		add r24,r20
 199 01ea 951F      		adc r25,r21
 200 01ec A61F      		adc r26,r22
 201 01ee B71F      		adc r27,r23
 202 01f0 8093 0000 		sts IntegralAccRoll,r24
 203 01f4 9093 0000 		sts (IntegralAccRoll)+1,r25
 204 01f8 A093 0000 		sts (IntegralAccRoll)+2,r26
 205 01fc B093 0000 		sts (IntegralAccRoll)+3,r27
 206 0200 6091 0000 		lds r22,IntegralAccZ
 207 0204 7091 0000 		lds r23,(IntegralAccZ)+1
 208 0208 8091 0000 		lds r24,(IntegralAccZ)+2
 209 020c 9091 0000 		lds r25,(IntegralAccZ)+3
 210 0210 E090 0000 		lds r14,Aktuell_az
 211 0214 F090 0000 		lds r15,(Aktuell_az)+1
 212 0218 A090 0000 		lds r10,NeutralAccZ
 213 021c B090 0000 		lds r11,(NeutralAccZ)+1
 214 0220 C090 0000 		lds r12,(NeutralAccZ)+2
 215 0224 D090 0000 		lds r13,(NeutralAccZ)+3
 216 0228 0E94 0000 		call __floatsisf
 217 022c 3B01      		movw r6,r22
 218 022e 4C01      		movw r8,r24
 219 0230 0027      		clr r16
 220 0232 F7FC      		sbrc r15,7
 221 0234 0095      		com r16
 222 0236 102F      		mov r17,r16
 223 0238 C801      		movw r24,r16
 224 023a B701      		movw r22,r14
 225 023c 0E94 0000 		call __floatsisf
 226 0240 A601      		movw r20,r12
 227 0242 9501      		movw r18,r10
 228 0244 0E94 0000 		call __subsf3
 229 0248 9B01      		movw r18,r22
 230 024a AC01      		movw r20,r24
 231 024c C401      		movw r24,r8
 232 024e B301      		movw r22,r6
 233 0250 0E94 0000 		call __addsf3
 234 0254 0E94 0000 		call __fixsfsi
 235 0258 6093 0000 		sts IntegralAccZ,r22
 236 025c 7093 0000 		sts (IntegralAccZ)+1,r23
 237 0260 8093 0000 		sts (IntegralAccZ)+2,r24
 238 0264 9093 0000 		sts (IntegralAccZ)+3,r25
 239 0268 2091 0000 		lds r18,Mess_Integral_Gier
 240 026c 3091 0000 		lds r19,(Mess_Integral_Gier)+1
 241 0270 4091 0000 		lds r20,(Mess_Integral_Gier)+2
 242 0274 5091 0000 		lds r21,(Mess_Integral_Gier)+3
 243 0278 8091 0000 		lds r24,MesswertGier
 244 027c 9091 0000 		lds r25,(MesswertGier)+1
 245 0280 AA27      		clr r26
 246 0282 97FD      		sbrc r25,7
 247 0284 A095      		com r26
 248 0286 BA2F      		mov r27,r26
 249 0288 820F      		add r24,r18
 250 028a 931F      		adc r25,r19
 251 028c A41F      		adc r26,r20
 252 028e B51F      		adc r27,r21
 253 0290 8093 0000 		sts Mess_Integral_Gier,r24
 254 0294 9093 0000 		sts (Mess_Integral_Gier)+1,r25
 255 0298 A093 0000 		sts (Mess_Integral_Gier)+2,r26
 256 029c B093 0000 		sts (Mess_Integral_Gier)+3,r27
 257 02a0 2091 0000 		lds r18,Mess_Integral_Gier2
 258 02a4 3091 0000 		lds r19,(Mess_Integral_Gier2)+1
 259 02a8 4091 0000 		lds r20,(Mess_Integral_Gier2)+2
 260 02ac 5091 0000 		lds r21,(Mess_Integral_Gier2)+3
 261 02b0 8091 0000 		lds r24,MesswertGier
 262 02b4 9091 0000 		lds r25,(MesswertGier)+1
 263 02b8 AA27      		clr r26
 264 02ba 97FD      		sbrc r25,7
 265 02bc A095      		com r26
 266 02be BA2F      		mov r27,r26
 267 02c0 820F      		add r24,r18
 268 02c2 931F      		adc r25,r19
 269 02c4 A41F      		adc r26,r20
 270 02c6 B51F      		adc r27,r21
 271 02c8 8093 0000 		sts Mess_Integral_Gier2,r24
 272 02cc 9093 0000 		sts (Mess_Integral_Gier2)+1,r25
 273 02d0 A093 0000 		sts (Mess_Integral_Gier2)+2,r26
 274 02d4 B093 0000 		sts (Mess_Integral_Gier2)+3,r27
 275 02d8 2091 0000 		lds r18,Looping_Nick
 276 02dc 2A83      		std Y+2,r18
 277 02de 2223      		tst r18
 278 02e0 01F0      		breq .+2
 279 02e2 00C0      		rjmp .L2
 280 02e4 8091 0000 		lds r24,Looping_Roll
 281 02e8 8823      		tst r24
 282 02ea 01F0      		breq .+2
 283 02ec 00C0      		rjmp .L2
 284 02ee 8091 0000 		lds r24,EE_Parameter+8
 285 02f2 86FF      		sbrs r24,6
 286 02f4 00C0      		rjmp .L2
 287 02f6 6091 0000 		lds r22,Mess_IntegralNick
 288 02fa 7091 0000 		lds r23,(Mess_IntegralNick)+1
 289 02fe 8091 0000 		lds r24,(Mess_IntegralNick)+2
 290 0302 9091 0000 		lds r25,(Mess_IntegralNick)+3
 291 0306 E090 0000 		lds r14,MesswertGier
 292 030a F090 0000 		lds r15,(MesswertGier)+1
 293 030e A090 0000 		lds r10,Parameter_AchsKopplung1
 294 0312 BB24      		clr r11
 295 0314 CC24      		clr r12
 296 0316 DD24      		clr r13
 297 0318 0027      		clr r16
 298 031a F7FC      		sbrc r15,7
 299 031c 0095      		com r16
 300 031e 102F      		mov r17,r16
 301 0320 20E0      		ldi r18,lo8(4096)
 302 0322 30E1      		ldi r19,hi8(4096)
 303 0324 40E0      		ldi r20,hlo8(4096)
 304 0326 50E0      		ldi r21,hhi8(4096)
 305 0328 0E94 0000 		call __divmodsi4
 306 032c C801      		movw r24,r16
 307 032e B701      		movw r22,r14
 308 0330 0E94 0000 		call __mulsi3
 309 0334 A601      		movw r20,r12
 310 0336 9501      		movw r18,r10
 311 0338 0E94 0000 		call __mulsi3
 312 033c 20E0      		ldi r18,lo8(2048)
 313 033e 38E0      		ldi r19,hi8(2048)
 314 0340 40E0      		ldi r20,hlo8(2048)
 315 0342 50E0      		ldi r21,hhi8(2048)
 316 0344 0E94 0000 		call __divmodsi4
 317 0348 2093 0000 		sts tmpl.2409,r18
 318 034c 3093 0000 		sts (tmpl.2409)+1,r19
 319 0350 4093 0000 		sts (tmpl.2409)+2,r20
 320 0354 5093 0000 		sts (tmpl.2409)+3,r21
 321 0358 6091 0000 		lds r22,Mess_IntegralRoll
 322 035c 7091 0000 		lds r23,(Mess_IntegralRoll)+1
 323 0360 8091 0000 		lds r24,(Mess_IntegralRoll)+2
 324 0364 9091 0000 		lds r25,(Mess_IntegralRoll)+3
 325 0368 E090 0000 		lds r14,MesswertGier
 326 036c F090 0000 		lds r15,(MesswertGier)+1
 327 0370 20E0      		ldi r18,lo8(4096)
 328 0372 30E1      		ldi r19,hi8(4096)
 329 0374 40E0      		ldi r20,hlo8(4096)
 330 0376 50E0      		ldi r21,hhi8(4096)
 331 0378 0E94 0000 		call __divmodsi4
 332 037c CA01      		movw r24,r20
 333 037e B901      		movw r22,r18
 334 0380 A601      		movw r20,r12
 335 0382 9501      		movw r18,r10
 336 0384 0E94 0000 		call __mulsi3
 337 0388 0027      		clr r16
 338 038a F7FC      		sbrc r15,7
 339 038c 0095      		com r16
 340 038e 102F      		mov r17,r16
 341 0390 A801      		movw r20,r16
 342 0392 9701      		movw r18,r14
 343 0394 0E94 0000 		call __mulsi3
 344 0398 20E0      		ldi r18,lo8(2048)
 345 039a 38E0      		ldi r19,hi8(2048)
 346 039c 40E0      		ldi r20,hlo8(2048)
 347 039e 50E0      		ldi r21,hhi8(2048)
 348 03a0 0E94 0000 		call __divmodsi4
 349 03a4 2093 0000 		sts tmpl2.2410,r18
 350 03a8 3093 0000 		sts (tmpl2.2410)+1,r19
 351 03ac 4093 0000 		sts (tmpl2.2410)+2,r20
 352 03b0 5093 0000 		sts (tmpl2.2410)+3,r21
 353 03b4 00C0      		rjmp .L6
 354               	.L2:
 355 03b6 1092 0000 		sts tmpl2.2410,__zero_reg__
 356 03ba 1092 0000 		sts (tmpl2.2410)+1,__zero_reg__
 357 03be 1092 0000 		sts (tmpl2.2410)+2,__zero_reg__
 358 03c2 1092 0000 		sts (tmpl2.2410)+3,__zero_reg__
 359 03c6 1092 0000 		sts tmpl.2409,__zero_reg__
 360 03ca 1092 0000 		sts (tmpl.2409)+1,__zero_reg__
 361 03ce 1092 0000 		sts (tmpl.2409)+2,__zero_reg__
 362 03d2 1092 0000 		sts (tmpl.2409)+3,__zero_reg__
 363               	.L6:
 364 03d6 8091 0000 		lds r24,MesswertRoll
 365 03da 9091 0000 		lds r25,(MesswertRoll)+1
 366 03de 2090 0000 		lds r2,tmpl.2409
 367 03e2 3090 0000 		lds r3,(tmpl.2409)+1
 368 03e6 4090 0000 		lds r4,(tmpl.2409)+2
 369 03ea 5090 0000 		lds r5,(tmpl.2409)+3
 370 03ee 820D      		add r24,r2
 371 03f0 931D      		adc r25,r3
 372 03f2 9093 0000 		sts (MesswertRoll)+1,r25
 373 03f6 8093 0000 		sts MesswertRoll,r24
 374 03fa 0091 0000 		lds r16,MesswertRoll
 375 03fe 1091 0000 		lds r17,(MesswertRoll)+1
 376 0402 A090 0000 		lds r10,tmpl2.2410
 377 0406 B090 0000 		lds r11,(tmpl2.2410)+1
 378 040a C090 0000 		lds r12,(tmpl2.2410)+2
 379 040e D090 0000 		lds r13,(tmpl2.2410)+3
 380 0412 8091 0000 		lds r24,Parameter_AchsGegenKopplung1
 381 0416 682E      		mov r6,r24
 382 0418 7724      		clr r7
 383 041a 8824      		clr r8
 384 041c 9924      		clr r9
 385 041e C401      		movw r24,r8
 386 0420 B301      		movw r22,r6
 387 0422 A601      		movw r20,r12
 388 0424 9501      		movw r18,r10
 389 0426 0E94 0000 		call __mulsi3
 390 042a 20E0      		ldi r18,lo8(512)
 391 042c 32E0      		ldi r19,hi8(512)
 392 042e 40E0      		ldi r20,hlo8(512)
 393 0430 50E0      		ldi r21,hhi8(512)
 394 0432 0E94 0000 		call __divmodsi4
 395 0436 020F      		add r16,r18
 396 0438 131F      		adc r17,r19
 397 043a 1093 0000 		sts (MesswertRoll)+1,r17
 398 043e 0093 0000 		sts MesswertRoll,r16
 399 0442 2091 0000 		lds r18,Mess_IntegralRoll2
 400 0446 3091 0000 		lds r19,(Mess_IntegralRoll2)+1
 401 044a 4091 0000 		lds r20,(Mess_IntegralRoll2)+2
 402 044e 5091 0000 		lds r21,(Mess_IntegralRoll2)+3
 403 0452 8091 0000 		lds r24,MesswertRoll
 404 0456 9091 0000 		lds r25,(MesswertRoll)+1
 405 045a AA27      		clr r26
 406 045c 97FD      		sbrc r25,7
 407 045e A095      		com r26
 408 0460 BA2F      		mov r27,r26
 409 0462 820F      		add r24,r18
 410 0464 931F      		adc r25,r19
 411 0466 A41F      		adc r26,r20
 412 0468 B51F      		adc r27,r21
 413 046a 8093 0000 		sts Mess_IntegralRoll2,r24
 414 046e 9093 0000 		sts (Mess_IntegralRoll2)+1,r25
 415 0472 A093 0000 		sts (Mess_IntegralRoll2)+2,r26
 416 0476 B093 0000 		sts (Mess_IntegralRoll2)+3,r27
 417 047a 4091 0000 		lds r20,Mess_IntegralRoll
 418 047e 5091 0000 		lds r21,(Mess_IntegralRoll)+1
 419 0482 6091 0000 		lds r22,(Mess_IntegralRoll)+2
 420 0486 7091 0000 		lds r23,(Mess_IntegralRoll)+3
 421 048a 8091 0000 		lds r24,MesswertRoll
 422 048e 9091 0000 		lds r25,(MesswertRoll)+1
 423 0492 2091 0000 		lds r18,LageKorrekturRoll
 424 0496 3091 0000 		lds r19,(LageKorrekturRoll)+1
 425 049a 821B      		sub r24,r18
 426 049c 930B      		sbc r25,r19
 427 049e AA27      		clr r26
 428 04a0 97FD      		sbrc r25,7
 429 04a2 A095      		com r26
 430 04a4 BA2F      		mov r27,r26
 431 04a6 840F      		add r24,r20
 432 04a8 951F      		adc r25,r21
 433 04aa A61F      		adc r26,r22
 434 04ac B71F      		adc r27,r23
 435 04ae 8093 0000 		sts Mess_IntegralRoll,r24
 436 04b2 9093 0000 		sts (Mess_IntegralRoll)+1,r25
 437 04b6 A093 0000 		sts (Mess_IntegralRoll)+2,r26
 438 04ba B093 0000 		sts (Mess_IntegralRoll)+3,r27
 439 04be 8091 0000 		lds r24,Mess_IntegralRoll
 440 04c2 9091 0000 		lds r25,(Mess_IntegralRoll)+1
 441 04c6 A091 0000 		lds r26,(Mess_IntegralRoll)+2
 442 04ca B091 0000 		lds r27,(Mess_IntegralRoll)+3
 443 04ce E090 0000 		lds r14,Umschlag180Roll
 444 04d2 F090 0000 		lds r15,(Umschlag180Roll)+1
 445 04d6 0091 0000 		lds r16,(Umschlag180Roll)+2
 446 04da 1091 0000 		lds r17,(Umschlag180Roll)+3
 447 04de E816      		cp r14,r24
 448 04e0 F906      		cpc r15,r25
 449 04e2 0A07      		cpc r16,r26
 450 04e4 1B07      		cpc r17,r27
 451 04e6 04F4      		brge .L7
 452 04e8 80E1      		ldi r24,lo8(10000)
 453 04ea 97E2      		ldi r25,hi8(10000)
 454 04ec A0E0      		ldi r26,hlo8(10000)
 455 04ee B0E0      		ldi r27,hhi8(10000)
 456 04f0 8E19      		sub r24,r14
 457 04f2 9F09      		sbc r25,r15
 458 04f4 A00B      		sbc r26,r16
 459 04f6 B10B      		sbc r27,r17
 460 04f8 8093 0000 		sts Mess_IntegralRoll,r24
 461 04fc 9093 0000 		sts (Mess_IntegralRoll)+1,r25
 462 0500 A093 0000 		sts (Mess_IntegralRoll)+2,r26
 463 0504 B093 0000 		sts (Mess_IntegralRoll)+3,r27
 464 0508 8091 0000 		lds r24,Mess_IntegralRoll
 465 050c 9091 0000 		lds r25,(Mess_IntegralRoll)+1
 466 0510 A091 0000 		lds r26,(Mess_IntegralRoll)+2
 467 0514 B091 0000 		lds r27,(Mess_IntegralRoll)+3
 468 0518 8093 0000 		sts Mess_IntegralRoll2,r24
 469 051c 9093 0000 		sts (Mess_IntegralRoll2)+1,r25
 470 0520 A093 0000 		sts (Mess_IntegralRoll2)+2,r26
 471 0524 B093 0000 		sts (Mess_IntegralRoll2)+3,r27
 472               	.L7:
 473 0528 2091 0000 		lds r18,Mess_IntegralRoll
 474 052c 3091 0000 		lds r19,(Mess_IntegralRoll)+1
 475 0530 4091 0000 		lds r20,(Mess_IntegralRoll)+2
 476 0534 5091 0000 		lds r21,(Mess_IntegralRoll)+3
 477 0538 8827      		clr r24
 478 053a 9927      		clr r25
 479 053c DC01      		movw r26,r24
 480 053e 8E19      		sub r24,r14
 481 0540 9F09      		sbc r25,r15
 482 0542 A00B      		sbc r26,r16
 483 0544 B10B      		sbc r27,r17
 484 0546 2817      		cp r18,r24
 485 0548 3907      		cpc r19,r25
 486 054a 4A07      		cpc r20,r26
 487 054c 5B07      		cpc r21,r27
 488 054e 04F4      		brge .L9
 489 0550 80EF      		ldi r24,lo8(-10000)
 490 0552 98ED      		ldi r25,hi8(-10000)
 491 0554 AFEF      		ldi r26,hlo8(-10000)
 492 0556 BFEF      		ldi r27,hhi8(-10000)
 493 0558 E80E      		add r14,r24
 494 055a F91E      		adc r15,r25
 495 055c 0A1F      		adc r16,r26
 496 055e 1B1F      		adc r17,r27
 497 0560 E092 0000 		sts Mess_IntegralRoll,r14
 498 0564 F092 0000 		sts (Mess_IntegralRoll)+1,r15
 499 0568 0093 0000 		sts (Mess_IntegralRoll)+2,r16
 500 056c 1093 0000 		sts (Mess_IntegralRoll)+3,r17
 501 0570 8091 0000 		lds r24,Mess_IntegralRoll
 502 0574 9091 0000 		lds r25,(Mess_IntegralRoll)+1
 503 0578 A091 0000 		lds r26,(Mess_IntegralRoll)+2
 504 057c B091 0000 		lds r27,(Mess_IntegralRoll)+3
 505 0580 8093 0000 		sts Mess_IntegralRoll2,r24
 506 0584 9093 0000 		sts (Mess_IntegralRoll2)+1,r25
 507 0588 A093 0000 		sts (Mess_IntegralRoll2)+2,r26
 508 058c B093 0000 		sts (Mess_IntegralRoll2)+3,r27
 509               	.L9:
 510 0590 8091 0000 		lds r24,AdWertRoll
 511 0594 9091 0000 		lds r25,(AdWertRoll)+1
 512 0598 0F97      		sbiw r24,15
 513 059a 04F4      		brge .L11
 514 059c 88E1      		ldi r24,lo8(-1000)
 515 059e 9CEF      		ldi r25,hi8(-1000)
 516 05a0 9093 0000 		sts (MesswertRoll)+1,r25
 517 05a4 8093 0000 		sts MesswertRoll,r24
 518               	.L11:
 519 05a8 8091 0000 		lds r24,AdWertRoll
 520 05ac 9091 0000 		lds r25,(AdWertRoll)+1
 521 05b0 0797      		sbiw r24,7
 522 05b2 04F4      		brge .L13
 523 05b4 80E3      		ldi r24,lo8(-2000)
 524 05b6 98EF      		ldi r25,hi8(-2000)
 525 05b8 9093 0000 		sts (MesswertRoll)+1,r25
 526 05bc 8093 0000 		sts MesswertRoll,r24
 527               	.L13:
 528 05c0 9091 0000 		lds r25,PlatinenVersion
 529 05c4 9983      		std Y+1,r25
 530 05c6 9A30      		cpi r25,lo8(10)
 531 05c8 01F4      		brne .L15
 532 05ca 8091 0000 		lds r24,AdWertRoll
 533 05ce 9091 0000 		lds r25,(AdWertRoll)+1
 534 05d2 835F      		subi r24,lo8(1011)
 535 05d4 9340      		sbci r25,hi8(1011)
 536 05d6 04F0      		brlt .L17
 537 05d8 88EE      		ldi r24,lo8(1000)
 538 05da 93E0      		ldi r25,hi8(1000)
 539 05dc 9093 0000 		sts (MesswertRoll)+1,r25
 540 05e0 8093 0000 		sts MesswertRoll,r24
 541               	.L17:
 542 05e4 8091 0000 		lds r24,AdWertRoll
 543 05e8 9091 0000 		lds r25,(AdWertRoll)+1
 544 05ec 8A5F      		subi r24,lo8(1018)
 545 05ee 9340      		sbci r25,hi8(1018)
 546 05f0 04F0      		brlt .L19
 547 05f2 00C0      		rjmp .L89
 548               	.L15:
 549 05f4 8091 0000 		lds r24,AdWertRoll
 550 05f8 9091 0000 		lds r25,(AdWertRoll)+1
 551 05fc 855E      		subi r24,lo8(2021)
 552 05fe 9740      		sbci r25,hi8(2021)
 553 0600 04F0      		brlt .L21
 554 0602 88EE      		ldi r24,lo8(1000)
 555 0604 93E0      		ldi r25,hi8(1000)
 556 0606 9093 0000 		sts (MesswertRoll)+1,r25
 557 060a 8093 0000 		sts MesswertRoll,r24
 558               	.L21:
 559 060e 8091 0000 		lds r24,AdWertRoll
 560 0612 9091 0000 		lds r25,(AdWertRoll)+1
 561 0616 835F      		subi r24,lo8(2035)
 562 0618 9740      		sbci r25,hi8(2035)
 563 061a 04F0      		brlt .L19
 564               	.L89:
 565 061c 80ED      		ldi r24,lo8(2000)
 566 061e 97E0      		ldi r25,hi8(2000)
 567 0620 9093 0000 		sts (MesswertRoll)+1,r25
 568 0624 8093 0000 		sts MesswertRoll,r24
 569               	.L19:
 570 0628 8091 0000 		lds r24,MesswertNick
 571 062c 9091 0000 		lds r25,(MesswertNick)+1
 572 0630 8A19      		sub r24,r10
 573 0632 9B09      		sbc r25,r11
 574 0634 9093 0000 		sts (MesswertNick)+1,r25
 575 0638 8093 0000 		sts MesswertNick,r24
 576 063c 0091 0000 		lds r16,MesswertNick
 577 0640 1091 0000 		lds r17,(MesswertNick)+1
 578 0644 C401      		movw r24,r8
 579 0646 B301      		movw r22,r6
 580 0648 A201      		movw r20,r4
 581 064a 9101      		movw r18,r2
 582 064c 0E94 0000 		call __mulsi3
 583 0650 20E0      		ldi r18,lo8(512)
 584 0652 32E0      		ldi r19,hi8(512)
 585 0654 40E0      		ldi r20,hlo8(512)
 586 0656 50E0      		ldi r21,hhi8(512)
 587 0658 0E94 0000 		call __divmodsi4
 588 065c 021B      		sub r16,r18
 589 065e 130B      		sbc r17,r19
 590 0660 1093 0000 		sts (MesswertNick)+1,r17
 591 0664 0093 0000 		sts MesswertNick,r16
 592 0668 2091 0000 		lds r18,Mess_IntegralNick2
 593 066c 3091 0000 		lds r19,(Mess_IntegralNick2)+1
 594 0670 4091 0000 		lds r20,(Mess_IntegralNick2)+2
 595 0674 5091 0000 		lds r21,(Mess_IntegralNick2)+3
 596 0678 8091 0000 		lds r24,MesswertNick
 597 067c 9091 0000 		lds r25,(MesswertNick)+1
 598 0680 AA27      		clr r26
 599 0682 97FD      		sbrc r25,7
 600 0684 A095      		com r26
 601 0686 BA2F      		mov r27,r26
 602 0688 820F      		add r24,r18
 603 068a 931F      		adc r25,r19
 604 068c A41F      		adc r26,r20
 605 068e B51F      		adc r27,r21
 606 0690 8093 0000 		sts Mess_IntegralNick2,r24
 607 0694 9093 0000 		sts (Mess_IntegralNick2)+1,r25
 608 0698 A093 0000 		sts (Mess_IntegralNick2)+2,r26
 609 069c B093 0000 		sts (Mess_IntegralNick2)+3,r27
 610 06a0 4091 0000 		lds r20,Mess_IntegralNick
 611 06a4 5091 0000 		lds r21,(Mess_IntegralNick)+1
 612 06a8 6091 0000 		lds r22,(Mess_IntegralNick)+2
 613 06ac 7091 0000 		lds r23,(Mess_IntegralNick)+3
 614 06b0 8091 0000 		lds r24,MesswertNick
 615 06b4 9091 0000 		lds r25,(MesswertNick)+1
 616 06b8 2091 0000 		lds r18,LageKorrekturNick
 617 06bc 3091 0000 		lds r19,(LageKorrekturNick)+1
 618 06c0 821B      		sub r24,r18
 619 06c2 930B      		sbc r25,r19
 620 06c4 AA27      		clr r26
 621 06c6 97FD      		sbrc r25,7
 622 06c8 A095      		com r26
 623 06ca BA2F      		mov r27,r26
 624 06cc 840F      		add r24,r20
 625 06ce 951F      		adc r25,r21
 626 06d0 A61F      		adc r26,r22
 627 06d2 B71F      		adc r27,r23
 628 06d4 8093 0000 		sts Mess_IntegralNick,r24
 629 06d8 9093 0000 		sts (Mess_IntegralNick)+1,r25
 630 06dc A093 0000 		sts (Mess_IntegralNick)+2,r26
 631 06e0 B093 0000 		sts (Mess_IntegralNick)+3,r27
 632 06e4 8091 0000 		lds r24,Mess_IntegralNick
 633 06e8 9091 0000 		lds r25,(Mess_IntegralNick)+1
 634 06ec A091 0000 		lds r26,(Mess_IntegralNick)+2
 635 06f0 B091 0000 		lds r27,(Mess_IntegralNick)+3
 636 06f4 E090 0000 		lds r14,Umschlag180Nick
 637 06f8 F090 0000 		lds r15,(Umschlag180Nick)+1
 638 06fc 0091 0000 		lds r16,(Umschlag180Nick)+2
 639 0700 1091 0000 		lds r17,(Umschlag180Nick)+3
 640 0704 E816      		cp r14,r24
 641 0706 F906      		cpc r15,r25
 642 0708 0A07      		cpc r16,r26
 643 070a 1B07      		cpc r17,r27
 644 070c 04F4      		brge .L24
 645 070e 80E1      		ldi r24,lo8(10000)
 646 0710 97E2      		ldi r25,hi8(10000)
 647 0712 A0E0      		ldi r26,hlo8(10000)
 648 0714 B0E0      		ldi r27,hhi8(10000)
 649 0716 8E19      		sub r24,r14
 650 0718 9F09      		sbc r25,r15
 651 071a A00B      		sbc r26,r16
 652 071c B10B      		sbc r27,r17
 653 071e 8093 0000 		sts Mess_IntegralNick,r24
 654 0722 9093 0000 		sts (Mess_IntegralNick)+1,r25
 655 0726 A093 0000 		sts (Mess_IntegralNick)+2,r26
 656 072a B093 0000 		sts (Mess_IntegralNick)+3,r27
 657 072e 8091 0000 		lds r24,Mess_IntegralNick
 658 0732 9091 0000 		lds r25,(Mess_IntegralNick)+1
 659 0736 A091 0000 		lds r26,(Mess_IntegralNick)+2
 660 073a B091 0000 		lds r27,(Mess_IntegralNick)+3
 661 073e 8093 0000 		sts Mess_IntegralNick2,r24
 662 0742 9093 0000 		sts (Mess_IntegralNick2)+1,r25
 663 0746 A093 0000 		sts (Mess_IntegralNick2)+2,r26
 664 074a B093 0000 		sts (Mess_IntegralNick2)+3,r27
 665               	.L24:
 666 074e 2091 0000 		lds r18,Mess_IntegralNick
 667 0752 3091 0000 		lds r19,(Mess_IntegralNick)+1
 668 0756 4091 0000 		lds r20,(Mess_IntegralNick)+2
 669 075a 5091 0000 		lds r21,(Mess_IntegralNick)+3
 670 075e 8827      		clr r24
 671 0760 9927      		clr r25
 672 0762 DC01      		movw r26,r24
 673 0764 8E19      		sub r24,r14
 674 0766 9F09      		sbc r25,r15
 675 0768 A00B      		sbc r26,r16
 676 076a B10B      		sbc r27,r17
 677 076c 2817      		cp r18,r24
 678 076e 3907      		cpc r19,r25
 679 0770 4A07      		cpc r20,r26
 680 0772 5B07      		cpc r21,r27
 681 0774 04F4      		brge .L26
 682 0776 80EF      		ldi r24,lo8(-10000)
 683 0778 98ED      		ldi r25,hi8(-10000)
 684 077a AFEF      		ldi r26,hlo8(-10000)
 685 077c BFEF      		ldi r27,hhi8(-10000)
 686 077e E80E      		add r14,r24
 687 0780 F91E      		adc r15,r25
 688 0782 0A1F      		adc r16,r26
 689 0784 1B1F      		adc r17,r27
 690 0786 E092 0000 		sts Mess_IntegralNick,r14
 691 078a F092 0000 		sts (Mess_IntegralNick)+1,r15
 692 078e 0093 0000 		sts (Mess_IntegralNick)+2,r16
 693 0792 1093 0000 		sts (Mess_IntegralNick)+3,r17
 694 0796 8091 0000 		lds r24,Mess_IntegralNick
 695 079a 9091 0000 		lds r25,(Mess_IntegralNick)+1
 696 079e A091 0000 		lds r26,(Mess_IntegralNick)+2
 697 07a2 B091 0000 		lds r27,(Mess_IntegralNick)+3
 698 07a6 8093 0000 		sts Mess_IntegralNick2,r24
 699 07aa 9093 0000 		sts (Mess_IntegralNick2)+1,r25
 700 07ae A093 0000 		sts (Mess_IntegralNick2)+2,r26
 701 07b2 B093 0000 		sts (Mess_IntegralNick2)+3,r27
 702               	.L26:
 703 07b6 8091 0000 		lds r24,AdWertNick
 704 07ba 9091 0000 		lds r25,(AdWertNick)+1
 705 07be 0F97      		sbiw r24,15
 706 07c0 04F4      		brge .L28
 707 07c2 88E1      		ldi r24,lo8(-1000)
 708 07c4 9CEF      		ldi r25,hi8(-1000)
 709 07c6 9093 0000 		sts (MesswertNick)+1,r25
 710 07ca 8093 0000 		sts MesswertNick,r24
 711               	.L28:
 712 07ce 8091 0000 		lds r24,AdWertNick
 713 07d2 9091 0000 		lds r25,(AdWertNick)+1
 714 07d6 0797      		sbiw r24,7
 715 07d8 04F4      		brge .L30
 716 07da 80E3      		ldi r24,lo8(-2000)
 717 07dc 98EF      		ldi r25,hi8(-2000)
 718 07de 9093 0000 		sts (MesswertNick)+1,r25
 719 07e2 8093 0000 		sts MesswertNick,r24
 720               	.L30:
 721 07e6 9981      		ldd r25,Y+1
 722 07e8 9A30      		cpi r25,lo8(10)
 723 07ea 01F4      		brne .L32
 724 07ec 8091 0000 		lds r24,AdWertNick
 725 07f0 9091 0000 		lds r25,(AdWertNick)+1
 726 07f4 835F      		subi r24,lo8(1011)
 727 07f6 9340      		sbci r25,hi8(1011)
 728 07f8 04F0      		brlt .L34
 729 07fa 88EE      		ldi r24,lo8(1000)
 730 07fc 93E0      		ldi r25,hi8(1000)
 731 07fe 9093 0000 		sts (MesswertNick)+1,r25
 732 0802 8093 0000 		sts MesswertNick,r24
 733               	.L34:
 734 0806 8091 0000 		lds r24,AdWertNick
 735 080a 9091 0000 		lds r25,(AdWertNick)+1
 736 080e 8A5F      		subi r24,lo8(1018)
 737 0810 9340      		sbci r25,hi8(1018)
 738 0812 04F0      		brlt .L36
 739 0814 00C0      		rjmp .L90
 740               	.L32:
 741 0816 8091 0000 		lds r24,AdWertNick
 742 081a 9091 0000 		lds r25,(AdWertNick)+1
 743 081e 855E      		subi r24,lo8(2021)
 744 0820 9740      		sbci r25,hi8(2021)
 745 0822 04F0      		brlt .L38
 746 0824 88EE      		ldi r24,lo8(1000)
 747 0826 93E0      		ldi r25,hi8(1000)
 748 0828 9093 0000 		sts (MesswertNick)+1,r25
 749 082c 8093 0000 		sts MesswertNick,r24
 750               	.L38:
 751 0830 8091 0000 		lds r24,AdWertNick
 752 0834 9091 0000 		lds r25,(AdWertNick)+1
 753 0838 835F      		subi r24,lo8(2035)
 754 083a 9740      		sbci r25,hi8(2035)
 755 083c 04F0      		brlt .L36
 756               	.L90:
 757 083e 80ED      		ldi r24,lo8(2000)
 758 0840 97E0      		ldi r25,hi8(2000)
 759 0842 9093 0000 		sts (MesswertNick)+1,r25
 760 0846 8093 0000 		sts MesswertNick,r24
 761               	.L36:
 762 084a 8FEE      		ldi r24,lo8(-17)
 763 084c 8093 7A00 		sts 122,r24
 764 0850 8091 0000 		lds r24,Mess_Integral_Gier
 765 0854 9091 0000 		lds r25,(Mess_Integral_Gier)+1
 766 0858 A091 0000 		lds r26,(Mess_Integral_Gier)+2
 767 085c B091 0000 		lds r27,(Mess_Integral_Gier)+3
 768 0860 8093 0000 		sts Integral_Gier,r24
 769 0864 9093 0000 		sts (Integral_Gier)+1,r25
 770 0868 A093 0000 		sts (Integral_Gier)+2,r26
 771 086c B093 0000 		sts (Integral_Gier)+3,r27
 772 0870 8091 0000 		lds r24,Mess_IntegralNick
 773 0874 9091 0000 		lds r25,(Mess_IntegralNick)+1
 774 0878 A091 0000 		lds r26,(Mess_IntegralNick)+2
 775 087c B091 0000 		lds r27,(Mess_IntegralNick)+3
 776 0880 8093 0000 		sts IntegralNick,r24
 777 0884 9093 0000 		sts (IntegralNick)+1,r25
 778 0888 A093 0000 		sts (IntegralNick)+2,r26
 779 088c B093 0000 		sts (IntegralNick)+3,r27
 780 0890 8091 0000 		lds r24,Mess_IntegralRoll
 781 0894 9091 0000 		lds r25,(Mess_IntegralRoll)+1
 782 0898 A091 0000 		lds r26,(Mess_IntegralRoll)+2
 783 089c B091 0000 		lds r27,(Mess_IntegralRoll)+3
 784 08a0 8093 0000 		sts IntegralRoll,r24
 785 08a4 9093 0000 		sts (IntegralRoll)+1,r25
 786 08a8 A093 0000 		sts (IntegralRoll)+2,r26
 787 08ac B093 0000 		sts (IntegralRoll)+3,r27
 788 08b0 8091 0000 		lds r24,Mess_IntegralNick2
 789 08b4 9091 0000 		lds r25,(Mess_IntegralNick2)+1
 790 08b8 A091 0000 		lds r26,(Mess_IntegralNick2)+2
 791 08bc B091 0000 		lds r27,(Mess_IntegralNick2)+3
 792 08c0 8093 0000 		sts IntegralNick2,r24
 793 08c4 9093 0000 		sts (IntegralNick2)+1,r25
 794 08c8 A093 0000 		sts (IntegralNick2)+2,r26
 795 08cc B093 0000 		sts (IntegralNick2)+3,r27
 796 08d0 8091 0000 		lds r24,Mess_IntegralRoll2
 797 08d4 9091 0000 		lds r25,(Mess_IntegralRoll2)+1
 798 08d8 A091 0000 		lds r26,(Mess_IntegralRoll2)+2
 799 08dc B091 0000 		lds r27,(Mess_IntegralRoll2)+3
 800 08e0 8093 0000 		sts IntegralRoll2,r24
 801 08e4 9093 0000 		sts (IntegralRoll2)+1,r25
 802 08e8 A093 0000 		sts (IntegralRoll2)+2,r26
 803 08ec B093 0000 		sts (IntegralRoll2)+3,r27
 804 08f0 8091 0000 		lds r24,EE_Parameter+8
 805 08f4 87FF      		sbrs r24,7
 806 08f6 00C0      		rjmp .L41
 807 08f8 2A81      		ldd r18,Y+2
 808 08fa 2223      		tst r18
 809 08fc 01F0      		breq .+2
 810 08fe 00C0      		rjmp .L41
 811 0900 8091 0000 		lds r24,Looping_Roll
 812 0904 8823      		tst r24
 813 0906 01F0      		breq .+2
 814 0908 00C0      		rjmp .L41
 815 090a 8091 0000 		lds r24,MesswertNick
 816 090e 9091 0000 		lds r25,(MesswertNick)+1
 817 0912 893C      		cpi r24,201
 818 0914 9105      		cpc r25,__zero_reg__
 819 0916 04F0      		brlt .L45
 820 0918 2091 0000 		lds r18,MesswertNick
 821 091c 3091 0000 		lds r19,(MesswertNick)+1
 822 0920 8091 0000 		lds r24,MesswertNick
 823 0924 9091 0000 		lds r25,(MesswertNick)+1
 824 0928 2052      		subi r18,lo8(-(-800))
 825 092a 3340      		sbci r19,hi8(-(-800))
 826 092c 00C0      		rjmp .L91
 827               	.L45:
 828 092e 8091 0000 		lds r24,MesswertNick
 829 0932 9091 0000 		lds r25,(MesswertNick)+1
 830 0936 8853      		subi r24,lo8(-200)
 831 0938 9F4F      		sbci r25,hi8(-200)
 832 093a 04F4      		brge .L47
 833 093c 2091 0000 		lds r18,MesswertNick
 834 0940 3091 0000 		lds r19,(MesswertNick)+1
 835 0944 8091 0000 		lds r24,MesswertNick
 836 0948 9091 0000 		lds r25,(MesswertNick)+1
 837 094c 205E      		subi r18,lo8(-(800))
 838 094e 3C4F      		sbci r19,hi8(-(800))
 839               	.L91:
 840 0950 880F      		lsl r24
 841 0952 991F      		rol r25
 842 0954 880F      		lsl r24
 843 0956 991F      		rol r25
 844 0958 280F      		add r18,r24
 845 095a 391F      		adc r19,r25
 846 095c 3093 0000 		sts (MesswertNick)+1,r19
 847 0960 2093 0000 		sts MesswertNick,r18
 848               	.L47:
 849 0964 8091 0000 		lds r24,MesswertRoll
 850 0968 9091 0000 		lds r25,(MesswertRoll)+1
 851 096c 893C      		cpi r24,201
 852 096e 9105      		cpc r25,__zero_reg__
 853 0970 04F0      		brlt .L49
 854 0972 2091 0000 		lds r18,MesswertRoll
 855 0976 3091 0000 		lds r19,(MesswertRoll)+1
 856 097a 8091 0000 		lds r24,MesswertRoll
 857 097e 9091 0000 		lds r25,(MesswertRoll)+1
 858 0982 2052      		subi r18,lo8(-(-800))
 859 0984 3340      		sbci r19,hi8(-(-800))
 860 0986 00C0      		rjmp .L92
 861               	.L49:
 862 0988 8091 0000 		lds r24,MesswertRoll
 863 098c 9091 0000 		lds r25,(MesswertRoll)+1
 864 0990 8853      		subi r24,lo8(-200)
 865 0992 9F4F      		sbci r25,hi8(-200)
 866 0994 04F4      		brge .L41
 867 0996 2091 0000 		lds r18,MesswertRoll
 868 099a 3091 0000 		lds r19,(MesswertRoll)+1
 869 099e 8091 0000 		lds r24,MesswertRoll
 870 09a2 9091 0000 		lds r25,(MesswertRoll)+1
 871 09a6 205E      		subi r18,lo8(-(800))
 872 09a8 3C4F      		sbci r19,hi8(-(800))
 873               	.L92:
 874 09aa 880F      		lsl r24
 875 09ac 991F      		rol r25
 876 09ae 880F      		lsl r24
 877 09b0 991F      		rol r25
 878 09b2 280F      		add r18,r24
 879 09b4 391F      		adc r19,r25
 880 09b6 3093 0000 		sts (MesswertRoll)+1,r19
 881 09ba 2093 0000 		sts MesswertRoll,r18
 882               	.L41:
 883 09be 2091 0000 		lds r18,Poti1
 884 09c2 3091 0000 		lds r19,(Poti1)+1
 885 09c6 8091 0000 		lds r24,EE_Parameter+4
 886 09ca E82F      		mov r30,r24
 887 09cc F0E0      		ldi r31,lo8(0)
 888 09ce EE0F      		lsl r30
 889 09d0 FF1F      		rol r31
 890 09d2 E050      		subi r30,lo8(-(PPM_in))
 891 09d4 F040      		sbci r31,hi8(-(PPM_in))
 892 09d6 8081      		ld r24,Z
 893 09d8 9181      		ldd r25,Z+1
 894 09da 8259      		subi r24,lo8(-(110))
 895 09dc 9F4F      		sbci r25,hi8(-(110))
 896 09de 2817      		cp r18,r24
 897 09e0 3907      		cpc r19,r25
 898 09e2 04F4      		brge .L52
 899 09e4 2F5F      		subi r18,lo8(-(1))
 900 09e6 3F4F      		sbci r19,hi8(-(1))
 901 09e8 00C0      		rjmp .L93
 902               	.L52:
 903 09ea 8081      		ld r24,Z
 904 09ec 9181      		ldd r25,Z+1
 905 09ee 8259      		subi r24,lo8(-(110))
 906 09f0 9F4F      		sbci r25,hi8(-(110))
 907 09f2 8217      		cp r24,r18
 908 09f4 9307      		cpc r25,r19
 909 09f6 04F4      		brge .L54
 910 09f8 2115      		cp r18,__zero_reg__
 911 09fa 3105      		cpc r19,__zero_reg__
 912 09fc 01F0      		breq .L54
 913 09fe 2150      		subi r18,lo8(-(-1))
 914 0a00 3040      		sbci r19,hi8(-(-1))
 915               	.L93:
 916 0a02 3093 0000 		sts (Poti1)+1,r19
 917 0a06 2093 0000 		sts Poti1,r18
 918               	.L54:
 919 0a0a 2091 0000 		lds r18,Poti2
 920 0a0e 3091 0000 		lds r19,(Poti2)+1
 921 0a12 8091 0000 		lds r24,EE_Parameter+5
 922 0a16 E82F      		mov r30,r24
 923 0a18 F0E0      		ldi r31,lo8(0)
 924 0a1a EE0F      		lsl r30
 925 0a1c FF1F      		rol r31
 926 0a1e E050      		subi r30,lo8(-(PPM_in))
 927 0a20 F040      		sbci r31,hi8(-(PPM_in))
 928 0a22 8081      		ld r24,Z
 929 0a24 9181      		ldd r25,Z+1
 930 0a26 8259      		subi r24,lo8(-(110))
 931 0a28 9F4F      		sbci r25,hi8(-(110))
 932 0a2a 2817      		cp r18,r24
 933 0a2c 3907      		cpc r19,r25
 934 0a2e 04F4      		brge .L57
 935 0a30 2F5F      		subi r18,lo8(-(1))
 936 0a32 3F4F      		sbci r19,hi8(-(1))
 937 0a34 00C0      		rjmp .L94
 938               	.L57:
 939 0a36 8081      		ld r24,Z
 940 0a38 9181      		ldd r25,Z+1
 941 0a3a 8259      		subi r24,lo8(-(110))
 942 0a3c 9F4F      		sbci r25,hi8(-(110))
 943 0a3e 8217      		cp r24,r18
 944 0a40 9307      		cpc r25,r19
 945 0a42 04F4      		brge .L59
 946 0a44 2115      		cp r18,__zero_reg__
 947 0a46 3105      		cpc r19,__zero_reg__
 948 0a48 01F0      		breq .L59
 949 0a4a 2150      		subi r18,lo8(-(-1))
 950 0a4c 3040      		sbci r19,hi8(-(-1))
 951               	.L94:
 952 0a4e 3093 0000 		sts (Poti2)+1,r19
 953 0a52 2093 0000 		sts Poti2,r18
 954               	.L59:
 955 0a56 2091 0000 		lds r18,Poti3
 956 0a5a 3091 0000 		lds r19,(Poti3)+1
 957 0a5e 8091 0000 		lds r24,EE_Parameter+6
 958 0a62 E82F      		mov r30,r24
 959 0a64 F0E0      		ldi r31,lo8(0)
 960 0a66 EE0F      		lsl r30
 961 0a68 FF1F      		rol r31
 962 0a6a E050      		subi r30,lo8(-(PPM_in))
 963 0a6c F040      		sbci r31,hi8(-(PPM_in))
 964 0a6e 8081      		ld r24,Z
 965 0a70 9181      		ldd r25,Z+1
 966 0a72 8259      		subi r24,lo8(-(110))
 967 0a74 9F4F      		sbci r25,hi8(-(110))
 968 0a76 2817      		cp r18,r24
 969 0a78 3907      		cpc r19,r25
 970 0a7a 04F4      		brge .L62
 971 0a7c 2F5F      		subi r18,lo8(-(1))
 972 0a7e 3F4F      		sbci r19,hi8(-(1))
 973 0a80 00C0      		rjmp .L95
 974               	.L62:
 975 0a82 8081      		ld r24,Z
 976 0a84 9181      		ldd r25,Z+1
 977 0a86 8259      		subi r24,lo8(-(110))
 978 0a88 9F4F      		sbci r25,hi8(-(110))
 979 0a8a 8217      		cp r24,r18
 980 0a8c 9307      		cpc r25,r19
 981 0a8e 04F4      		brge .L64
 982 0a90 2115      		cp r18,__zero_reg__
 983 0a92 3105      		cpc r19,__zero_reg__
 984 0a94 01F0      		breq .L64
 985 0a96 2150      		subi r18,lo8(-(-1))
 986 0a98 3040      		sbci r19,hi8(-(-1))
 987               	.L95:
 988 0a9a 3093 0000 		sts (Poti3)+1,r19
 989 0a9e 2093 0000 		sts Poti3,r18
 990               	.L64:
 991 0aa2 2091 0000 		lds r18,Poti4
 992 0aa6 3091 0000 		lds r19,(Poti4)+1
 993 0aaa 8091 0000 		lds r24,EE_Parameter+7
 994 0aae E82F      		mov r30,r24
 995 0ab0 F0E0      		ldi r31,lo8(0)
 996 0ab2 EE0F      		lsl r30
 997 0ab4 FF1F      		rol r31
 998 0ab6 E050      		subi r30,lo8(-(PPM_in))
 999 0ab8 F040      		sbci r31,hi8(-(PPM_in))
 1000 0aba 8081      		ld r24,Z
 1001 0abc 9181      		ldd r25,Z+1
 1002 0abe 8259      		subi r24,lo8(-(110))
 1003 0ac0 9F4F      		sbci r25,hi8(-(110))
 1004 0ac2 2817      		cp r18,r24
 1005 0ac4 3907      		cpc r19,r25
 1006 0ac6 04F4      		brge .L67
 1007 0ac8 2F5F      		subi r18,lo8(-(1))
 1008 0aca 3F4F      		sbci r19,hi8(-(1))
 1009 0acc 00C0      		rjmp .L96
 1010               	.L67:
 1011 0ace 8081      		ld r24,Z
 1012 0ad0 9181      		ldd r25,Z+1
 1013 0ad2 8259      		subi r24,lo8(-(110))
 1014 0ad4 9F4F      		sbci r25,hi8(-(110))
 1015 0ad6 8217      		cp r24,r18
 1016 0ad8 9307      		cpc r25,r19
 1017 0ada 04F4      		brge .L69
 1018 0adc 2115      		cp r18,__zero_reg__
 1019 0ade 3105      		cpc r19,__zero_reg__
 1020 0ae0 01F0      		breq .L69
 1021 0ae2 2150      		subi r18,lo8(-(-1))
 1022 0ae4 3040      		sbci r19,hi8(-(-1))
 1023               	.L96:
 1024 0ae6 3093 0000 		sts (Poti4)+1,r19
 1025 0aea 2093 0000 		sts Poti4,r18
 1026               	.L69:
 1027 0aee 8091 0000 		lds r24,Poti1
 1028 0af2 9091 0000 		lds r25,(Poti1)+1
 1029 0af6 97FF      		sbrs r25,7
 1030 0af8 00C0      		rjmp .L72
 1031 0afa 1092 0000 		sts (Poti1)+1,__zero_reg__
 1032 0afe 1092 0000 		sts Poti1,__zero_reg__
 1033 0b02 00C0      		rjmp .L74
 1034               	.L72:
 1035 0b04 8F3F      		cpi r24,255
 1036 0b06 9105      		cpc r25,__zero_reg__
 1037 0b08 01F0      		breq .L74
 1038 0b0a 04F0      		brlt .L74
 1039 0b0c 8FEF      		ldi r24,lo8(255)
 1040 0b0e 90E0      		ldi r25,hi8(255)
 1041 0b10 9093 0000 		sts (Poti1)+1,r25
 1042 0b14 8093 0000 		sts Poti1,r24
 1043               	.L74:
 1044 0b18 8091 0000 		lds r24,Poti2
 1045 0b1c 9091 0000 		lds r25,(Poti2)+1
 1046 0b20 97FF      		sbrs r25,7
 1047 0b22 00C0      		rjmp .L76
 1048 0b24 1092 0000 		sts (Poti2)+1,__zero_reg__
 1049 0b28 1092 0000 		sts Poti2,__zero_reg__
 1050 0b2c 00C0      		rjmp .L78
 1051               	.L76:
 1052 0b2e 8F3F      		cpi r24,255
 1053 0b30 9105      		cpc r25,__zero_reg__
 1054 0b32 01F0      		breq .L78
 1055 0b34 04F0      		brlt .L78
 1056 0b36 8FEF      		ldi r24,lo8(255)
 1057 0b38 90E0      		ldi r25,hi8(255)
 1058 0b3a 9093 0000 		sts (Poti2)+1,r25
 1059 0b3e 8093 0000 		sts Poti2,r24
 1060               	.L78:
 1061 0b42 8091 0000 		lds r24,Poti3
 1062 0b46 9091 0000 		lds r25,(Poti3)+1
 1063 0b4a 97FF      		sbrs r25,7
 1064 0b4c 00C0      		rjmp .L80
 1065 0b4e 1092 0000 		sts (Poti3)+1,__zero_reg__
 1066 0b52 1092 0000 		sts Poti3,__zero_reg__
 1067 0b56 00C0      		rjmp .L82
 1068               	.L80:
 1069 0b58 8F3F      		cpi r24,255
 1070 0b5a 9105      		cpc r25,__zero_reg__
 1071 0b5c 01F0      		breq .L82
 1072 0b5e 04F0      		brlt .L82
 1073 0b60 8FEF      		ldi r24,lo8(255)
 1074 0b62 90E0      		ldi r25,hi8(255)
 1075 0b64 9093 0000 		sts (Poti3)+1,r25
 1076 0b68 8093 0000 		sts Poti3,r24
 1077               	.L82:
 1078 0b6c 8091 0000 		lds r24,Poti4
 1079 0b70 9091 0000 		lds r25,(Poti4)+1
 1080 0b74 97FF      		sbrs r25,7
 1081 0b76 00C0      		rjmp .L84
 1082 0b78 1092 0000 		sts (Poti4)+1,__zero_reg__
 1083 0b7c 1092 0000 		sts Poti4,__zero_reg__
 1084 0b80 00C0      		rjmp .L88
 1085               	.L84:
 1086 0b82 8F3F      		cpi r24,255
 1087 0b84 9105      		cpc r25,__zero_reg__
 1088 0b86 01F0      		breq .L88
 1089 0b88 04F0      		brlt .L88
 1090 0b8a 8FEF      		ldi r24,lo8(255)
 1091 0b8c 90E0      		ldi r25,hi8(255)
 1092 0b8e 9093 0000 		sts (Poti4)+1,r25
 1093 0b92 8093 0000 		sts Poti4,r24
 1094               	.L88:
 1095               	/* epilogue: frame size=2 */
 1096 0b96 2296      		adiw r28,2
 1097 0b98 0FB6      		in __tmp_reg__,__SREG__
 1098 0b9a F894      		cli
 1099 0b9c DEBF      		out __SP_H__,r29
 1100 0b9e 0FBE      		out __SREG__,__tmp_reg__
 1101 0ba0 CDBF      		out __SP_L__,r28
 1102 0ba2 DF91      		pop r29
 1103 0ba4 CF91      		pop r28
 1104 0ba6 1F91      		pop r17
 1105 0ba8 0F91      		pop r16
 1106 0baa FF90      		pop r15
 1107 0bac EF90      		pop r14
 1108 0bae DF90      		pop r13
 1109 0bb0 CF90      		pop r12
 1110 0bb2 BF90      		pop r11
 1111 0bb4 AF90      		pop r10
 1112 0bb6 9F90      		pop r9
 1113 0bb8 8F90      		pop r8
 1114 0bba 7F90      		pop r7
 1115 0bbc 6F90      		pop r6
 1116 0bbe 5F90      		pop r5
 1117 0bc0 4F90      		pop r4
 1118 0bc2 3F90      		pop r3
 1119 0bc4 2F90      		pop r2
 1120 0bc6 0895      		ret
 1121               	/* epilogue end (size=25) */
 1122               	/* function Mittelwert size 1522 (1471) */
 1124               	.global	CalibrierMittelwert
 1126               	CalibrierMittelwert:
 1127               	/* prologue: frame size=0 */
 1128               	/* prologue end (size=0) */
 1129 0bc8 1092 7A00 		sts 122,__zero_reg__
 1130 0bcc 8091 0000 		lds r24,AdWertNick
 1131 0bd0 9091 0000 		lds r25,(AdWertNick)+1
 1132 0bd4 9093 0000 		sts (MesswertNick)+1,r25
 1133 0bd8 8093 0000 		sts MesswertNick,r24
 1134 0bdc 8091 0000 		lds r24,AdWertRoll
 1135 0be0 9091 0000 		lds r25,(AdWertRoll)+1
 1136 0be4 9093 0000 		sts (MesswertRoll)+1,r25
 1137 0be8 8093 0000 		sts MesswertRoll,r24
 1138 0bec 8091 0000 		lds r24,AdWertGier
 1139 0bf0 9091 0000 		lds r25,(AdWertGier)+1
 1140 0bf4 9093 0000 		sts (MesswertGier)+1,r25
 1141 0bf8 8093 0000 		sts MesswertGier,r24
 1142 0bfc 6091 0000 		lds r22,AdWertAccNick
 1143 0c00 7091 0000 		lds r23,(AdWertAccNick)+1
 1144 0c04 8827      		clr r24
 1145 0c06 77FD      		sbrc r23,7
 1146 0c08 8095      		com r24
 1147 0c0a 982F      		mov r25,r24
 1148 0c0c 2CE0      		ldi r18,lo8(12)
 1149 0c0e 30E0      		ldi r19,hi8(12)
 1150 0c10 40E0      		ldi r20,hlo8(12)
 1151 0c12 50E0      		ldi r21,hhi8(12)
 1152 0c14 0E94 0000 		call __mulsi3
 1153 0c18 7093 0000 		sts (Mittelwert_AccNick)+1,r23
 1154 0c1c 6093 0000 		sts Mittelwert_AccNick,r22
 1155 0c20 6091 0000 		lds r22,AdWertAccRoll
 1156 0c24 7091 0000 		lds r23,(AdWertAccRoll)+1
 1157 0c28 8827      		clr r24
 1158 0c2a 77FD      		sbrc r23,7
 1159 0c2c 8095      		com r24
 1160 0c2e 982F      		mov r25,r24
 1161 0c30 0E94 0000 		call __mulsi3
 1162 0c34 7093 0000 		sts (Mittelwert_AccRoll)+1,r23
 1163 0c38 6093 0000 		sts Mittelwert_AccRoll,r22
 1164 0c3c 8091 0000 		lds r24,AdWertAccHoch
 1165 0c40 9091 0000 		lds r25,(AdWertAccHoch)+1
 1166 0c44 9093 0000 		sts (Mittelwert_AccHoch)+1,r25
 1167 0c48 8093 0000 		sts Mittelwert_AccHoch,r24
 1168 0c4c 8FEE      		ldi r24,lo8(-17)
 1169 0c4e 8093 7A00 		sts 122,r24
 1170 0c52 2091 0000 		lds r18,Poti1
 1171 0c56 3091 0000 		lds r19,(Poti1)+1
 1172 0c5a 8091 0000 		lds r24,EE_Parameter+4
 1173 0c5e E82F      		mov r30,r24
 1174 0c60 F0E0      		ldi r31,lo8(0)
 1175 0c62 EE0F      		lsl r30
 1176 0c64 FF1F      		rol r31
 1177 0c66 E050      		subi r30,lo8(-(PPM_in))
 1178 0c68 F040      		sbci r31,hi8(-(PPM_in))
 1179 0c6a 8081      		ld r24,Z
 1180 0c6c 9181      		ldd r25,Z+1
 1181 0c6e 8259      		subi r24,lo8(-(110))
 1182 0c70 9F4F      		sbci r25,hi8(-(110))
 1183 0c72 2817      		cp r18,r24
 1184 0c74 3907      		cpc r19,r25
 1185 0c76 04F4      		brge .L98
 1186 0c78 2F5F      		subi r18,lo8(-(1))
 1187 0c7a 3F4F      		sbci r19,hi8(-(1))
 1188 0c7c 00C0      		rjmp .L135
 1189               	.L98:
 1190 0c7e 8081      		ld r24,Z
 1191 0c80 9181      		ldd r25,Z+1
 1192 0c82 8259      		subi r24,lo8(-(110))
 1193 0c84 9F4F      		sbci r25,hi8(-(110))
 1194 0c86 8217      		cp r24,r18
 1195 0c88 9307      		cpc r25,r19
 1196 0c8a 04F4      		brge .L100
 1197 0c8c 2115      		cp r18,__zero_reg__
 1198 0c8e 3105      		cpc r19,__zero_reg__
 1199 0c90 01F0      		breq .L100
 1200 0c92 2150      		subi r18,lo8(-(-1))
 1201 0c94 3040      		sbci r19,hi8(-(-1))
 1202               	.L135:
 1203 0c96 3093 0000 		sts (Poti1)+1,r19
 1204 0c9a 2093 0000 		sts Poti1,r18
 1205               	.L100:
 1206 0c9e 2091 0000 		lds r18,Poti2
 1207 0ca2 3091 0000 		lds r19,(Poti2)+1
 1208 0ca6 8091 0000 		lds r24,EE_Parameter+5
 1209 0caa E82F      		mov r30,r24
 1210 0cac F0E0      		ldi r31,lo8(0)
 1211 0cae EE0F      		lsl r30
 1212 0cb0 FF1F      		rol r31
 1213 0cb2 E050      		subi r30,lo8(-(PPM_in))
 1214 0cb4 F040      		sbci r31,hi8(-(PPM_in))
 1215 0cb6 8081      		ld r24,Z
 1216 0cb8 9181      		ldd r25,Z+1
 1217 0cba 8259      		subi r24,lo8(-(110))
 1218 0cbc 9F4F      		sbci r25,hi8(-(110))
 1219 0cbe 2817      		cp r18,r24
 1220 0cc0 3907      		cpc r19,r25
 1221 0cc2 04F4      		brge .L103
 1222 0cc4 2F5F      		subi r18,lo8(-(1))
 1223 0cc6 3F4F      		sbci r19,hi8(-(1))
 1224 0cc8 00C0      		rjmp .L136
 1225               	.L103:
 1226 0cca 8081      		ld r24,Z
 1227 0ccc 9181      		ldd r25,Z+1
 1228 0cce 8259      		subi r24,lo8(-(110))
 1229 0cd0 9F4F      		sbci r25,hi8(-(110))
 1230 0cd2 8217      		cp r24,r18
 1231 0cd4 9307      		cpc r25,r19
 1232 0cd6 04F4      		brge .L105
 1233 0cd8 2115      		cp r18,__zero_reg__
 1234 0cda 3105      		cpc r19,__zero_reg__
 1235 0cdc 01F0      		breq .L105
 1236 0cde 2150      		subi r18,lo8(-(-1))
 1237 0ce0 3040      		sbci r19,hi8(-(-1))
 1238               	.L136:
 1239 0ce2 3093 0000 		sts (Poti2)+1,r19
 1240 0ce6 2093 0000 		sts Poti2,r18
 1241               	.L105:
 1242 0cea 2091 0000 		lds r18,Poti3
 1243 0cee 3091 0000 		lds r19,(Poti3)+1
 1244 0cf2 8091 0000 		lds r24,EE_Parameter+6
 1245 0cf6 E82F      		mov r30,r24
 1246 0cf8 F0E0      		ldi r31,lo8(0)
 1247 0cfa EE0F      		lsl r30
 1248 0cfc FF1F      		rol r31
 1249 0cfe E050      		subi r30,lo8(-(PPM_in))
 1250 0d00 F040      		sbci r31,hi8(-(PPM_in))
 1251 0d02 8081      		ld r24,Z
 1252 0d04 9181      		ldd r25,Z+1
 1253 0d06 8259      		subi r24,lo8(-(110))
 1254 0d08 9F4F      		sbci r25,hi8(-(110))
 1255 0d0a 2817      		cp r18,r24
 1256 0d0c 3907      		cpc r19,r25
 1257 0d0e 04F4      		brge .L108
 1258 0d10 2F5F      		subi r18,lo8(-(1))
 1259 0d12 3F4F      		sbci r19,hi8(-(1))
 1260 0d14 00C0      		rjmp .L137
 1261               	.L108:
 1262 0d16 8081      		ld r24,Z
 1263 0d18 9181      		ldd r25,Z+1
 1264 0d1a 8259      		subi r24,lo8(-(110))
 1265 0d1c 9F4F      		sbci r25,hi8(-(110))
 1266 0d1e 8217      		cp r24,r18
 1267 0d20 9307      		cpc r25,r19
 1268 0d22 04F4      		brge .L110
 1269 0d24 2115      		cp r18,__zero_reg__
 1270 0d26 3105      		cpc r19,__zero_reg__
 1271 0d28 01F0      		breq .L110
 1272 0d2a 2150      		subi r18,lo8(-(-1))
 1273 0d2c 3040      		sbci r19,hi8(-(-1))
 1274               	.L137:
 1275 0d2e 3093 0000 		sts (Poti3)+1,r19
 1276 0d32 2093 0000 		sts Poti3,r18
 1277               	.L110:
 1278 0d36 2091 0000 		lds r18,Poti4
 1279 0d3a 3091 0000 		lds r19,(Poti4)+1
 1280 0d3e 8091 0000 		lds r24,EE_Parameter+7
 1281 0d42 E82F      		mov r30,r24
 1282 0d44 F0E0      		ldi r31,lo8(0)
 1283 0d46 EE0F      		lsl r30
 1284 0d48 FF1F      		rol r31
 1285 0d4a E050      		subi r30,lo8(-(PPM_in))
 1286 0d4c F040      		sbci r31,hi8(-(PPM_in))
 1287 0d4e 8081      		ld r24,Z
 1288 0d50 9181      		ldd r25,Z+1
 1289 0d52 8259      		subi r24,lo8(-(110))
 1290 0d54 9F4F      		sbci r25,hi8(-(110))
 1291 0d56 2817      		cp r18,r24
 1292 0d58 3907      		cpc r19,r25
 1293 0d5a 04F4      		brge .L113
 1294 0d5c 2F5F      		subi r18,lo8(-(1))
 1295 0d5e 3F4F      		sbci r19,hi8(-(1))
 1296 0d60 00C0      		rjmp .L138
 1297               	.L113:
 1298 0d62 8081      		ld r24,Z
 1299 0d64 9181      		ldd r25,Z+1
 1300 0d66 8259      		subi r24,lo8(-(110))
 1301 0d68 9F4F      		sbci r25,hi8(-(110))
 1302 0d6a 8217      		cp r24,r18
 1303 0d6c 9307      		cpc r25,r19
 1304 0d6e 04F4      		brge .L115
 1305 0d70 2115      		cp r18,__zero_reg__
 1306 0d72 3105      		cpc r19,__zero_reg__
 1307 0d74 01F0      		breq .L115
 1308 0d76 2150      		subi r18,lo8(-(-1))
 1309 0d78 3040      		sbci r19,hi8(-(-1))
 1310               	.L138:
 1311 0d7a 3093 0000 		sts (Poti4)+1,r19
 1312 0d7e 2093 0000 		sts Poti4,r18
 1313               	.L115:
 1314 0d82 8091 0000 		lds r24,Poti1
 1315 0d86 9091 0000 		lds r25,(Poti1)+1
 1316 0d8a 97FF      		sbrs r25,7
 1317 0d8c 00C0      		rjmp .L118
 1318 0d8e 1092 0000 		sts (Poti1)+1,__zero_reg__
 1319 0d92 1092 0000 		sts Poti1,__zero_reg__
 1320 0d96 00C0      		rjmp .L120
 1321               	.L118:
 1322 0d98 8F3F      		cpi r24,255
 1323 0d9a 9105      		cpc r25,__zero_reg__
 1324 0d9c 01F0      		breq .L120
 1325 0d9e 04F0      		brlt .L120
 1326 0da0 8FEF      		ldi r24,lo8(255)
 1327 0da2 90E0      		ldi r25,hi8(255)
 1328 0da4 9093 0000 		sts (Poti1)+1,r25
 1329 0da8 8093 0000 		sts Poti1,r24
 1330               	.L120:
 1331 0dac 8091 0000 		lds r24,Poti2
 1332 0db0 9091 0000 		lds r25,(Poti2)+1
 1333 0db4 97FF      		sbrs r25,7
 1334 0db6 00C0      		rjmp .L122
 1335 0db8 1092 0000 		sts (Poti2)+1,__zero_reg__
 1336 0dbc 1092 0000 		sts Poti2,__zero_reg__
 1337 0dc0 00C0      		rjmp .L124
 1338               	.L122:
 1339 0dc2 8F3F      		cpi r24,255
 1340 0dc4 9105      		cpc r25,__zero_reg__
 1341 0dc6 01F0      		breq .L124
 1342 0dc8 04F0      		brlt .L124
 1343 0dca 8FEF      		ldi r24,lo8(255)
 1344 0dcc 90E0      		ldi r25,hi8(255)
 1345 0dce 9093 0000 		sts (Poti2)+1,r25
 1346 0dd2 8093 0000 		sts Poti2,r24
 1347               	.L124:
 1348 0dd6 8091 0000 		lds r24,Poti3
 1349 0dda 9091 0000 		lds r25,(Poti3)+1
 1350 0dde 97FF      		sbrs r25,7
 1351 0de0 00C0      		rjmp .L126
 1352 0de2 1092 0000 		sts (Poti3)+1,__zero_reg__
 1353 0de6 1092 0000 		sts Poti3,__zero_reg__
 1354 0dea 00C0      		rjmp .L128
 1355               	.L126:
 1356 0dec 8F3F      		cpi r24,255
 1357 0dee 9105      		cpc r25,__zero_reg__
 1358 0df0 01F0      		breq .L128
 1359 0df2 04F0      		brlt .L128
 1360 0df4 8FEF      		ldi r24,lo8(255)
 1361 0df6 90E0      		ldi r25,hi8(255)
 1362 0df8 9093 0000 		sts (Poti3)+1,r25
 1363 0dfc 8093 0000 		sts Poti3,r24
 1364               	.L128:
 1365 0e00 8091 0000 		lds r24,Poti4
 1366 0e04 9091 0000 		lds r25,(Poti4)+1
 1367 0e08 97FF      		sbrs r25,7
 1368 0e0a 00C0      		rjmp .L130
 1369 0e0c 1092 0000 		sts (Poti4)+1,__zero_reg__
 1370 0e10 1092 0000 		sts Poti4,__zero_reg__
 1371 0e14 00C0      		rjmp .L132
 1372               	.L130:
 1373 0e16 8F3F      		cpi r24,255
 1374 0e18 9105      		cpc r25,__zero_reg__
 1375 0e1a 01F0      		breq .L132
 1376 0e1c 04F0      		brlt .L132
 1377 0e1e 8FEF      		ldi r24,lo8(255)
 1378 0e20 90E0      		ldi r25,hi8(255)
 1379 0e22 9093 0000 		sts (Poti4)+1,r25
 1380 0e26 8093 0000 		sts Poti4,r24
 1381               	.L132:
 1382 0e2a 6091 0000 		lds r22,EE_Parameter+43
 1383 0e2e 70E0      		ldi r23,lo8(0)
 1384 0e30 80E0      		ldi r24,lo8(0)
 1385 0e32 90E0      		ldi r25,hi8(0)
 1386 0e34 24EC      		ldi r18,lo8(2500)
 1387 0e36 39E0      		ldi r19,hi8(2500)
 1388 0e38 40E0      		ldi r20,hlo8(2500)
 1389 0e3a 50E0      		ldi r21,hhi8(2500)
 1390 0e3c 0E94 0000 		call __mulsi3
 1391 0e40 6093 0000 		sts Umschlag180Nick,r22
 1392 0e44 7093 0000 		sts (Umschlag180Nick)+1,r23
 1393 0e48 8093 0000 		sts (Umschlag180Nick)+2,r24
 1394 0e4c 9093 0000 		sts (Umschlag180Nick)+3,r25
 1395 0e50 6093 0000 		sts Umschlag180Roll,r22
 1396 0e54 7093 0000 		sts (Umschlag180Roll)+1,r23
 1397 0e58 8093 0000 		sts (Umschlag180Roll)+2,r24
 1398 0e5c 9093 0000 		sts (Umschlag180Roll)+3,r25
 1399               	/* epilogue: frame size=0 */
 1400 0e60 0895      		ret
 1401               	/* epilogue end (size=1) */
 1402               	/* function CalibrierMittelwert size 333 (332) */
 1404               	.global	ParameterZuordnung
 1406               	ParameterZuordnung:
 1407               	/* prologue: frame size=0 */
 1408               	/* prologue end (size=0) */
 1409 0e62 8091 0000 		lds r24,EE_Parameter+11
 1410 0e66 8B3F      		cpi r24,lo8(-5)
 1411 0e68 00F0      		brlo .L140
 1412 0e6a 8B3F      		cpi r24,lo8(-5)
 1413 0e6c 01F4      		brne .L142
 1414 0e6e 8091 0000 		lds r24,Poti1
 1415 0e72 00C0      		rjmp .L140
 1416               	.L142:
 1417 0e74 8C3F      		cpi r24,lo8(-4)
 1418 0e76 01F4      		brne .L145
 1419 0e78 8091 0000 		lds r24,Poti2
 1420 0e7c 00C0      		rjmp .L140
 1421               	.L145:
 1422 0e7e 8D3F      		cpi r24,lo8(-3)
 1423 0e80 01F4      		brne .L147
 1424 0e82 8091 0000 		lds r24,Poti3
 1425 0e86 00C0      		rjmp .L140
 1426               	.L147:
 1427 0e88 8E3F      		cpi r24,lo8(-2)
 1428 0e8a 01F4      		brne .L144
 1429 0e8c 8091 0000 		lds r24,Poti4
 1430               	.L140:
 1431 0e90 8093 0000 		sts Parameter_MaxHoehe,r24
 1432               	.L144:
 1433 0e94 8091 0000 		lds r24,Parameter_MaxHoehe
 1434 0e98 8823      		tst r24
 1435 0e9a 01F4      		brne .L150
 1436 0e9c 1092 0000 		sts Parameter_MaxHoehe,__zero_reg__
 1437 0ea0 00C0      		rjmp .L152
 1438               	.L150:
 1439 0ea2 8F3F      		cpi r24,lo8(-1)
 1440 0ea4 01F4      		brne .L152
 1441 0ea6 8093 0000 		sts Parameter_MaxHoehe,r24
 1442               	.L152:
 1443 0eaa 8091 0000 		lds r24,EE_Parameter+10
 1444 0eae 8B3F      		cpi r24,lo8(-5)
 1445 0eb0 00F0      		brlo .L154
 1446 0eb2 8B3F      		cpi r24,lo8(-5)
 1447 0eb4 01F4      		brne .L156
 1448 0eb6 8091 0000 		lds r24,Poti1
 1449 0eba 00C0      		rjmp .L154
 1450               	.L156:
 1451 0ebc 8C3F      		cpi r24,lo8(-4)
 1452 0ebe 01F4      		brne .L159
 1453 0ec0 8091 0000 		lds r24,Poti2
 1454 0ec4 00C0      		rjmp .L154
 1455               	.L159:
 1456 0ec6 8D3F      		cpi r24,lo8(-3)
 1457 0ec8 01F4      		brne .L161
 1458 0eca 8091 0000 		lds r24,Poti3
 1459 0ece 00C0      		rjmp .L154
 1460               	.L161:
 1461 0ed0 8E3F      		cpi r24,lo8(-2)
 1462 0ed2 01F4      		brne .L158
 1463 0ed4 8091 0000 		lds r24,Poti4
 1464               	.L154:
 1465 0ed8 8093 0000 		sts Parameter_Luftdruck_D,r24
 1466               	.L158:
 1467 0edc 8091 0000 		lds r24,Parameter_Luftdruck_D
 1468 0ee0 8823      		tst r24
 1469 0ee2 01F4      		brne .L164
 1470 0ee4 1092 0000 		sts Parameter_Luftdruck_D,__zero_reg__
 1471 0ee8 00C0      		rjmp .L166
 1472               	.L164:
 1473 0eea 8436      		cpi r24,lo8(100)
 1474 0eec 00F0      		brlo .L166
 1475 0eee 84E6      		ldi r24,lo8(100)
 1476 0ef0 8093 0000 		sts Parameter_Luftdruck_D,r24
 1477               	.L166:
 1478 0ef4 8091 0000 		lds r24,EE_Parameter+12
 1479 0ef8 8B3F      		cpi r24,lo8(-5)
 1480 0efa 00F0      		brlo .L168
 1481 0efc 8B3F      		cpi r24,lo8(-5)
 1482 0efe 01F4      		brne .L170
 1483 0f00 8091 0000 		lds r24,Poti1
 1484 0f04 00C0      		rjmp .L168
 1485               	.L170:
 1486 0f06 8C3F      		cpi r24,lo8(-4)
 1487 0f08 01F4      		brne .L173
 1488 0f0a 8091 0000 		lds r24,Poti2
 1489 0f0e 00C0      		rjmp .L168
 1490               	.L173:
 1491 0f10 8D3F      		cpi r24,lo8(-3)
 1492 0f12 01F4      		brne .L175
 1493 0f14 8091 0000 		lds r24,Poti3
 1494 0f18 00C0      		rjmp .L168
 1495               	.L175:
 1496 0f1a 8E3F      		cpi r24,lo8(-2)
 1497 0f1c 01F4      		brne .L172
 1498 0f1e 8091 0000 		lds r24,Poti4
 1499               	.L168:
 1500 0f22 8093 0000 		sts Parameter_Hoehe_P,r24
 1501               	.L172:
 1502 0f26 8091 0000 		lds r24,Parameter_Hoehe_P
 1503 0f2a 8823      		tst r24
 1504 0f2c 01F4      		brne .L178
 1505 0f2e 1092 0000 		sts Parameter_Hoehe_P,__zero_reg__
 1506 0f32 00C0      		rjmp .L180
 1507               	.L178:
 1508 0f34 8436      		cpi r24,lo8(100)
 1509 0f36 00F0      		brlo .L180
 1510 0f38 84E6      		ldi r24,lo8(100)
 1511 0f3a 8093 0000 		sts Parameter_Hoehe_P,r24
 1512               	.L180:
 1513 0f3e 8091 0000 		lds r24,EE_Parameter+14
 1514 0f42 8B3F      		cpi r24,lo8(-5)
 1515 0f44 00F0      		brlo .L182
 1516 0f46 8B3F      		cpi r24,lo8(-5)
 1517 0f48 01F4      		brne .L184
 1518 0f4a 8091 0000 		lds r24,Poti1
 1519 0f4e 00C0      		rjmp .L182
 1520               	.L184:
 1521 0f50 8C3F      		cpi r24,lo8(-4)
 1522 0f52 01F4      		brne .L187
 1523 0f54 8091 0000 		lds r24,Poti2
 1524 0f58 00C0      		rjmp .L182
 1525               	.L187:
 1526 0f5a 8D3F      		cpi r24,lo8(-3)
 1527 0f5c 01F4      		brne .L189
 1528 0f5e 8091 0000 		lds r24,Poti3
 1529 0f62 00C0      		rjmp .L182
 1530               	.L189:
 1531 0f64 8E3F      		cpi r24,lo8(-2)
 1532 0f66 01F4      		brne .L186
 1533 0f68 8091 0000 		lds r24,Poti4
 1534               	.L182:
 1535 0f6c 8093 0000 		sts Parameter_Hoehe_ACC_Wirkung,r24
 1536               	.L186:
 1537 0f70 8091 0000 		lds r24,Parameter_Hoehe_ACC_Wirkung
 1538 0f74 8823      		tst r24
 1539 0f76 01F4      		brne .L192
 1540 0f78 1092 0000 		sts Parameter_Hoehe_ACC_Wirkung,__zero_reg__
 1541 0f7c 00C0      		rjmp .L194
 1542               	.L192:
 1543 0f7e 8F3F      		cpi r24,lo8(-1)
 1544 0f80 01F4      		brne .L194
 1545 0f82 8093 0000 		sts Parameter_Hoehe_ACC_Wirkung,r24
 1546               	.L194:
 1547 0f86 8091 0000 		lds r24,EE_Parameter+21
 1548 0f8a 8B3F      		cpi r24,lo8(-5)
 1549 0f8c 00F0      		brlo .L196
 1550 0f8e 8B3F      		cpi r24,lo8(-5)
 1551 0f90 01F4      		brne .L198
 1552 0f92 8091 0000 		lds r24,Poti1
 1553 0f96 00C0      		rjmp .L196
 1554               	.L198:
 1555 0f98 8C3F      		cpi r24,lo8(-4)
 1556 0f9a 01F4      		brne .L201
 1557 0f9c 8091 0000 		lds r24,Poti2
 1558 0fa0 00C0      		rjmp .L196
 1559               	.L201:
 1560 0fa2 8D3F      		cpi r24,lo8(-3)
 1561 0fa4 01F4      		brne .L203
 1562 0fa6 8091 0000 		lds r24,Poti3
 1563 0faa 00C0      		rjmp .L196
 1564               	.L203:
 1565 0fac 8E3F      		cpi r24,lo8(-2)
 1566 0fae 01F4      		brne .L200
 1567 0fb0 8091 0000 		lds r24,Poti4
 1568               	.L196:
 1569 0fb4 8093 0000 		sts Parameter_KompassWirkung,r24
 1570               	.L200:
 1571 0fb8 8091 0000 		lds r24,Parameter_KompassWirkung
 1572 0fbc 8823      		tst r24
 1573 0fbe 01F4      		brne .L206
 1574 0fc0 1092 0000 		sts Parameter_KompassWirkung,__zero_reg__
 1575 0fc4 00C0      		rjmp .L208
 1576               	.L206:
 1577 0fc6 8F3F      		cpi r24,lo8(-1)
 1578 0fc8 01F4      		brne .L208
 1579 0fca 8093 0000 		sts Parameter_KompassWirkung,r24
 1580               	.L208:
 1581 0fce 8091 0000 		lds r24,EE_Parameter+22
 1582 0fd2 8B3F      		cpi r24,lo8(-5)
 1583 0fd4 00F0      		brlo .L210
 1584 0fd6 8B3F      		cpi r24,lo8(-5)
 1585 0fd8 01F4      		brne .L212
 1586 0fda 8091 0000 		lds r24,Poti1
 1587 0fde 00C0      		rjmp .L210
 1588               	.L212:
 1589 0fe0 8C3F      		cpi r24,lo8(-4)
 1590 0fe2 01F4      		brne .L215
 1591 0fe4 8091 0000 		lds r24,Poti2
 1592 0fe8 00C0      		rjmp .L210
 1593               	.L215:
 1594 0fea 8D3F      		cpi r24,lo8(-3)
 1595 0fec 01F4      		brne .L217
 1596 0fee 8091 0000 		lds r24,Poti3
 1597 0ff2 00C0      		rjmp .L210
 1598               	.L217:
 1599 0ff4 8E3F      		cpi r24,lo8(-2)
 1600 0ff6 01F4      		brne .L214
 1601 0ff8 8091 0000 		lds r24,Poti4
 1602               	.L210:
 1603 0ffc 8093 0000 		sts Parameter_Gyro_P,r24
 1604               	.L214:
 1605 1000 8091 0000 		lds r24,Parameter_Gyro_P
 1606 1004 8B30      		cpi r24,lo8(11)
 1607 1006 00F4      		brsh .L220
 1608 1008 8AE0      		ldi r24,lo8(10)
 1609 100a 00C0      		rjmp .L435
 1610               	.L220:
 1611 100c 8F3F      		cpi r24,lo8(-1)
 1612 100e 01F4      		brne .L222
 1613               	.L435:
 1614 1010 8093 0000 		sts Parameter_Gyro_P,r24
 1615               	.L222:
 1616 1014 8091 0000 		lds r24,EE_Parameter+23
 1617 1018 8B3F      		cpi r24,lo8(-5)
 1618 101a 00F0      		brlo .L224
 1619 101c 8B3F      		cpi r24,lo8(-5)
 1620 101e 01F4      		brne .L226
 1621 1020 8091 0000 		lds r24,Poti1
 1622 1024 00C0      		rjmp .L224
 1623               	.L226:
 1624 1026 8C3F      		cpi r24,lo8(-4)
 1625 1028 01F4      		brne .L229
 1626 102a 8091 0000 		lds r24,Poti2
 1627 102e 00C0      		rjmp .L224
 1628               	.L229:
 1629 1030 8D3F      		cpi r24,lo8(-3)
 1630 1032 01F4      		brne .L231
 1631 1034 8091 0000 		lds r24,Poti3
 1632 1038 00C0      		rjmp .L224
 1633               	.L231:
 1634 103a 8E3F      		cpi r24,lo8(-2)
 1635 103c 01F4      		brne .L228
 1636 103e 8091 0000 		lds r24,Poti4
 1637               	.L224:
 1638 1042 8093 0000 		sts Parameter_Gyro_I,r24
 1639               	.L228:
 1640 1046 8091 0000 		lds r24,Parameter_Gyro_I
 1641 104a 8823      		tst r24
 1642 104c 01F4      		brne .L234
 1643 104e 1092 0000 		sts Parameter_Gyro_I,__zero_reg__
 1644 1052 00C0      		rjmp .L236
 1645               	.L234:
 1646 1054 8F3F      		cpi r24,lo8(-1)
 1647 1056 01F4      		brne .L236
 1648 1058 8093 0000 		sts Parameter_Gyro_I,r24
 1649               	.L236:
 1650 105c 8091 0000 		lds r24,EE_Parameter+28
 1651 1060 8B3F      		cpi r24,lo8(-5)
 1652 1062 00F0      		brlo .L238
 1653 1064 8B3F      		cpi r24,lo8(-5)
 1654 1066 01F4      		brne .L240
 1655 1068 8091 0000 		lds r24,Poti1
 1656 106c 00C0      		rjmp .L238
 1657               	.L240:
 1658 106e 8C3F      		cpi r24,lo8(-4)
 1659 1070 01F4      		brne .L243
 1660 1072 8091 0000 		lds r24,Poti2
 1661 1076 00C0      		rjmp .L238
 1662               	.L243:
 1663 1078 8D3F      		cpi r24,lo8(-3)
 1664 107a 01F4      		brne .L245
 1665 107c 8091 0000 		lds r24,Poti3
 1666 1080 00C0      		rjmp .L238
 1667               	.L245:
 1668 1082 8E3F      		cpi r24,lo8(-2)
 1669 1084 01F4      		brne .L242
 1670 1086 8091 0000 		lds r24,Poti4
 1671               	.L238:
 1672 108a 8093 0000 		sts Parameter_I_Faktor,r24
 1673               	.L242:
 1674 108e 8091 0000 		lds r24,Parameter_I_Faktor
 1675 1092 8823      		tst r24
 1676 1094 01F4      		brne .L248
 1677 1096 1092 0000 		sts Parameter_I_Faktor,__zero_reg__
 1678 109a 00C0      		rjmp .L250
 1679               	.L248:
 1680 109c 8F3F      		cpi r24,lo8(-1)
 1681 109e 01F4      		brne .L250
 1682 10a0 8093 0000 		sts Parameter_I_Faktor,r24
 1683               	.L250:
 1684 10a4 8091 0000 		lds r24,EE_Parameter+29
 1685 10a8 8B3F      		cpi r24,lo8(-5)
 1686 10aa 00F0      		brlo .L252
 1687 10ac 8B3F      		cpi r24,lo8(-5)
 1688 10ae 01F4      		brne .L254
 1689 10b0 8091 0000 		lds r24,Poti1
 1690 10b4 00C0      		rjmp .L252
 1691               	.L254:
 1692 10b6 8C3F      		cpi r24,lo8(-4)
 1693 10b8 01F4      		brne .L257
 1694 10ba 8091 0000 		lds r24,Poti2
 1695 10be 00C0      		rjmp .L252
 1696               	.L257:
 1697 10c0 8D3F      		cpi r24,lo8(-3)
 1698 10c2 01F4      		brne .L259
 1699 10c4 8091 0000 		lds r24,Poti3
 1700 10c8 00C0      		rjmp .L252
 1701               	.L259:
 1702 10ca 8E3F      		cpi r24,lo8(-2)
 1703 10cc 01F4      		brne .L256
 1704 10ce 8091 0000 		lds r24,Poti4
 1705               	.L252:
 1706 10d2 8093 0000 		sts Parameter_UserParam1,r24
 1707               	.L256:
 1708 10d6 8091 0000 		lds r24,Parameter_UserParam1
 1709 10da 8823      		tst r24
 1710 10dc 01F4      		brne .L262
 1711 10de 1092 0000 		sts Parameter_UserParam1,__zero_reg__
 1712 10e2 00C0      		rjmp .L264
 1713               	.L262:
 1714 10e4 8F3F      		cpi r24,lo8(-1)
 1715 10e6 01F4      		brne .L264
 1716 10e8 8093 0000 		sts Parameter_UserParam1,r24
 1717               	.L264:
 1718 10ec 8091 0000 		lds r24,EE_Parameter+30
 1719 10f0 8B3F      		cpi r24,lo8(-5)
 1720 10f2 00F0      		brlo .L266
 1721 10f4 8B3F      		cpi r24,lo8(-5)
 1722 10f6 01F4      		brne .L268
 1723 10f8 8091 0000 		lds r24,Poti1
 1724 10fc 00C0      		rjmp .L266
 1725               	.L268:
 1726 10fe 8C3F      		cpi r24,lo8(-4)
 1727 1100 01F4      		brne .L271
 1728 1102 8091 0000 		lds r24,Poti2
 1729 1106 00C0      		rjmp .L266
 1730               	.L271:
 1731 1108 8D3F      		cpi r24,lo8(-3)
 1732 110a 01F4      		brne .L273
 1733 110c 8091 0000 		lds r24,Poti3
 1734 1110 00C0      		rjmp .L266
 1735               	.L273:
 1736 1112 8E3F      		cpi r24,lo8(-2)
 1737 1114 01F4      		brne .L270
 1738 1116 8091 0000 		lds r24,Poti4
 1739               	.L266:
 1740 111a 8093 0000 		sts Parameter_UserParam2,r24
 1741               	.L270:
 1742 111e 8091 0000 		lds r24,Parameter_UserParam2
 1743 1122 8823      		tst r24
 1744 1124 01F4      		brne .L276
 1745 1126 1092 0000 		sts Parameter_UserParam2,__zero_reg__
 1746 112a 00C0      		rjmp .L278
 1747               	.L276:
 1748 112c 8F3F      		cpi r24,lo8(-1)
 1749 112e 01F4      		brne .L278
 1750 1130 8093 0000 		sts Parameter_UserParam2,r24
 1751               	.L278:
 1752 1134 8091 0000 		lds r24,EE_Parameter+31
 1753 1138 8B3F      		cpi r24,lo8(-5)
 1754 113a 00F0      		brlo .L280
 1755 113c 8B3F      		cpi r24,lo8(-5)
 1756 113e 01F4      		brne .L282
 1757 1140 8091 0000 		lds r24,Poti1
 1758 1144 00C0      		rjmp .L280
 1759               	.L282:
 1760 1146 8C3F      		cpi r24,lo8(-4)
 1761 1148 01F4      		brne .L285
 1762 114a 8091 0000 		lds r24,Poti2
 1763 114e 00C0      		rjmp .L280
 1764               	.L285:
 1765 1150 8D3F      		cpi r24,lo8(-3)
 1766 1152 01F4      		brne .L287
 1767 1154 8091 0000 		lds r24,Poti3
 1768 1158 00C0      		rjmp .L280
 1769               	.L287:
 1770 115a 8E3F      		cpi r24,lo8(-2)
 1771 115c 01F4      		brne .L284
 1772 115e 8091 0000 		lds r24,Poti4
 1773               	.L280:
 1774 1162 8093 0000 		sts Parameter_UserParam3,r24
 1775               	.L284:
 1776 1166 8091 0000 		lds r24,Parameter_UserParam3
 1777 116a 8823      		tst r24
 1778 116c 01F4      		brne .L290
 1779 116e 1092 0000 		sts Parameter_UserParam3,__zero_reg__
 1780 1172 00C0      		rjmp .L292
 1781               	.L290:
 1782 1174 8F3F      		cpi r24,lo8(-1)
 1783 1176 01F4      		brne .L292
 1784 1178 8093 0000 		sts Parameter_UserParam3,r24
 1785               	.L292:
 1786 117c 8091 0000 		lds r24,EE_Parameter+32
 1787 1180 8B3F      		cpi r24,lo8(-5)
 1788 1182 00F0      		brlo .L294
 1789 1184 8B3F      		cpi r24,lo8(-5)
 1790 1186 01F4      		brne .L296
 1791 1188 8091 0000 		lds r24,Poti1
 1792 118c 00C0      		rjmp .L294
 1793               	.L296:
 1794 118e 8C3F      		cpi r24,lo8(-4)
 1795 1190 01F4      		brne .L299
 1796 1192 8091 0000 		lds r24,Poti2
 1797 1196 00C0      		rjmp .L294
 1798               	.L299:
 1799 1198 8D3F      		cpi r24,lo8(-3)
 1800 119a 01F4      		brne .L301
 1801 119c 8091 0000 		lds r24,Poti3
 1802 11a0 00C0      		rjmp .L294
 1803               	.L301:
 1804 11a2 8E3F      		cpi r24,lo8(-2)
 1805 11a4 01F4      		brne .L298
 1806 11a6 8091 0000 		lds r24,Poti4
 1807               	.L294:
 1808 11aa 8093 0000 		sts Parameter_UserParam4,r24
 1809               	.L298:
 1810 11ae 8091 0000 		lds r24,Parameter_UserParam4
 1811 11b2 8823      		tst r24
 1812 11b4 01F4      		brne .L304
 1813 11b6 1092 0000 		sts Parameter_UserParam4,__zero_reg__
 1814 11ba 00C0      		rjmp .L306
 1815               	.L304:
 1816 11bc 8F3F      		cpi r24,lo8(-1)
 1817 11be 01F4      		brne .L306
 1818 11c0 8093 0000 		sts Parameter_UserParam4,r24
 1819               	.L306:
 1820 11c4 8091 0000 		lds r24,EE_Parameter+48
 1821 11c8 8B3F      		cpi r24,lo8(-5)
 1822 11ca 00F0      		brlo .L308
 1823 11cc 8B3F      		cpi r24,lo8(-5)
 1824 11ce 01F4      		brne .L310
 1825 11d0 8091 0000 		lds r24,Poti1
 1826 11d4 00C0      		rjmp .L308
 1827               	.L310:
 1828 11d6 8C3F      		cpi r24,lo8(-4)
 1829 11d8 01F4      		brne .L313
 1830 11da 8091 0000 		lds r24,Poti2
 1831 11de 00C0      		rjmp .L308
 1832               	.L313:
 1833 11e0 8D3F      		cpi r24,lo8(-3)
 1834 11e2 01F4      		brne .L315
 1835 11e4 8091 0000 		lds r24,Poti3
 1836 11e8 00C0      		rjmp .L308
 1837               	.L315:
 1838 11ea 8E3F      		cpi r24,lo8(-2)
 1839 11ec 01F4      		brne .L312
 1840 11ee 8091 0000 		lds r24,Poti4
 1841               	.L308:
 1842 11f2 8093 0000 		sts Parameter_UserParam5,r24
 1843               	.L312:
 1844 11f6 8091 0000 		lds r24,Parameter_UserParam5
 1845 11fa 8823      		tst r24
 1846 11fc 01F4      		brne .L318
 1847 11fe 1092 0000 		sts Parameter_UserParam5,__zero_reg__
 1848 1202 00C0      		rjmp .L320
 1849               	.L318:
 1850 1204 8F3F      		cpi r24,lo8(-1)
 1851 1206 01F4      		brne .L320
 1852 1208 8093 0000 		sts Parameter_UserParam5,r24
 1853               	.L320:
 1854 120c 8091 0000 		lds r24,EE_Parameter+49
 1855 1210 8B3F      		cpi r24,lo8(-5)
 1856 1212 00F0      		brlo .L322
 1857 1214 8B3F      		cpi r24,lo8(-5)
 1858 1216 01F4      		brne .L324
 1859 1218 8091 0000 		lds r24,Poti1
 1860 121c 00C0      		rjmp .L322
 1861               	.L324:
 1862 121e 8C3F      		cpi r24,lo8(-4)
 1863 1220 01F4      		brne .L327
 1864 1222 8091 0000 		lds r24,Poti2
 1865 1226 00C0      		rjmp .L322
 1866               	.L327:
 1867 1228 8D3F      		cpi r24,lo8(-3)
 1868 122a 01F4      		brne .L329
 1869 122c 8091 0000 		lds r24,Poti3
 1870 1230 00C0      		rjmp .L322
 1871               	.L329:
 1872 1232 8E3F      		cpi r24,lo8(-2)
 1873 1234 01F4      		brne .L326
 1874 1236 8091 0000 		lds r24,Poti4
 1875               	.L322:
 1876 123a 8093 0000 		sts Parameter_UserParam6,r24
 1877               	.L326:
 1878 123e 8091 0000 		lds r24,Parameter_UserParam6
 1879 1242 8823      		tst r24
 1880 1244 01F4      		brne .L332
 1881 1246 1092 0000 		sts Parameter_UserParam6,__zero_reg__
 1882 124a 00C0      		rjmp .L334
 1883               	.L332:
 1884 124c 8F3F      		cpi r24,lo8(-1)
 1885 124e 01F4      		brne .L334
 1886 1250 8093 0000 		sts Parameter_UserParam6,r24
 1887               	.L334:
 1888 1254 8091 0000 		lds r24,EE_Parameter+50
 1889 1258 8B3F      		cpi r24,lo8(-5)
 1890 125a 00F0      		brlo .L336
 1891 125c 8B3F      		cpi r24,lo8(-5)
 1892 125e 01F4      		brne .L338
 1893 1260 8091 0000 		lds r24,Poti1
 1894 1264 00C0      		rjmp .L336
 1895               	.L338:
 1896 1266 8C3F      		cpi r24,lo8(-4)
 1897 1268 01F4      		brne .L341
 1898 126a 8091 0000 		lds r24,Poti2
 1899 126e 00C0      		rjmp .L336
 1900               	.L341:
 1901 1270 8D3F      		cpi r24,lo8(-3)
 1902 1272 01F4      		brne .L343
 1903 1274 8091 0000 		lds r24,Poti3
 1904 1278 00C0      		rjmp .L336
 1905               	.L343:
 1906 127a 8E3F      		cpi r24,lo8(-2)
 1907 127c 01F4      		brne .L340
 1908 127e 8091 0000 		lds r24,Poti4
 1909               	.L336:
 1910 1282 8093 0000 		sts Parameter_UserParam7,r24
 1911               	.L340:
 1912 1286 8091 0000 		lds r24,Parameter_UserParam7
 1913 128a 8823      		tst r24
 1914 128c 01F4      		brne .L346
 1915 128e 1092 0000 		sts Parameter_UserParam7,__zero_reg__
 1916 1292 00C0      		rjmp .L348
 1917               	.L346:
 1918 1294 8F3F      		cpi r24,lo8(-1)
 1919 1296 01F4      		brne .L348
 1920 1298 8093 0000 		sts Parameter_UserParam7,r24
 1921               	.L348:
 1922 129c 8091 0000 		lds r24,EE_Parameter+51
 1923 12a0 8B3F      		cpi r24,lo8(-5)
 1924 12a2 00F0      		brlo .L350
 1925 12a4 8B3F      		cpi r24,lo8(-5)
 1926 12a6 01F4      		brne .L352
 1927 12a8 8091 0000 		lds r24,Poti1
 1928 12ac 00C0      		rjmp .L350
 1929               	.L352:
 1930 12ae 8C3F      		cpi r24,lo8(-4)
 1931 12b0 01F4      		brne .L355
 1932 12b2 8091 0000 		lds r24,Poti2
 1933 12b6 00C0      		rjmp .L350
 1934               	.L355:
 1935 12b8 8D3F      		cpi r24,lo8(-3)
 1936 12ba 01F4      		brne .L357
 1937 12bc 8091 0000 		lds r24,Poti3
 1938 12c0 00C0      		rjmp .L350
 1939               	.L357:
 1940 12c2 8E3F      		cpi r24,lo8(-2)
 1941 12c4 01F4      		brne .L354
 1942 12c6 8091 0000 		lds r24,Poti4
 1943               	.L350:
 1944 12ca 8093 0000 		sts Parameter_UserParam8,r24
 1945               	.L354:
 1946 12ce 8091 0000 		lds r24,Parameter_UserParam8
 1947 12d2 8823      		tst r24
 1948 12d4 01F4      		brne .L360
 1949 12d6 1092 0000 		sts Parameter_UserParam8,__zero_reg__
 1950 12da 00C0      		rjmp .L362
 1951               	.L360:
 1952 12dc 8F3F      		cpi r24,lo8(-1)
 1953 12de 01F4      		brne .L362
 1954 12e0 8093 0000 		sts Parameter_UserParam8,r24
 1955               	.L362:
 1956 12e4 8091 0000 		lds r24,EE_Parameter+33
 1957 12e8 8B3F      		cpi r24,lo8(-5)
 1958 12ea 00F0      		brlo .L364
 1959 12ec 8B3F      		cpi r24,lo8(-5)
 1960 12ee 01F4      		brne .L366
 1961 12f0 8091 0000 		lds r24,Poti1
 1962 12f4 00C0      		rjmp .L364
 1963               	.L366:
 1964 12f6 8C3F      		cpi r24,lo8(-4)
 1965 12f8 01F4      		brne .L369
 1966 12fa 8091 0000 		lds r24,Poti2
 1967 12fe 00C0      		rjmp .L364
 1968               	.L369:
 1969 1300 8D3F      		cpi r24,lo8(-3)
 1970 1302 01F4      		brne .L371
 1971 1304 8091 0000 		lds r24,Poti3
 1972 1308 00C0      		rjmp .L364
 1973               	.L371:
 1974 130a 8E3F      		cpi r24,lo8(-2)
 1975 130c 01F4      		brne .L368
 1976 130e 8091 0000 		lds r24,Poti4
 1977               	.L364:
 1978 1312 8093 0000 		sts Parameter_ServoNickControl,r24
 1979               	.L368:
 1980 1316 8091 0000 		lds r24,Parameter_ServoNickControl
 1981 131a 8823      		tst r24
 1982 131c 01F4      		brne .L374
 1983 131e 1092 0000 		sts Parameter_ServoNickControl,__zero_reg__
 1984 1322 00C0      		rjmp .L376
 1985               	.L374:
 1986 1324 8F3F      		cpi r24,lo8(-1)
 1987 1326 01F4      		brne .L376
 1988 1328 8093 0000 		sts Parameter_ServoNickControl,r24
 1989               	.L376:
 1990 132c 8091 0000 		lds r24,EE_Parameter+38
 1991 1330 8B3F      		cpi r24,lo8(-5)
 1992 1332 00F0      		brlo .L378
 1993 1334 8B3F      		cpi r24,lo8(-5)
 1994 1336 01F4      		brne .L380
 1995 1338 8091 0000 		lds r24,Poti1
 1996 133c 00C0      		rjmp .L378
 1997               	.L380:
 1998 133e 8C3F      		cpi r24,lo8(-4)
 1999 1340 01F4      		brne .L383
 2000 1342 8091 0000 		lds r24,Poti2
 2001 1346 00C0      		rjmp .L378
 2002               	.L383:
 2003 1348 8D3F      		cpi r24,lo8(-3)
 2004 134a 01F4      		brne .L385
 2005 134c 8091 0000 		lds r24,Poti3
 2006 1350 00C0      		rjmp .L378
 2007               	.L385:
 2008 1352 8E3F      		cpi r24,lo8(-2)
 2009 1354 01F4      		brne .L382
 2010 1356 8091 0000 		lds r24,Poti4
 2011               	.L378:
 2012 135a 8093 0000 		sts Parameter_LoopGasLimit,r24
 2013               	.L382:
 2014 135e 8091 0000 		lds r24,Parameter_LoopGasLimit
 2015 1362 8823      		tst r24
 2016 1364 01F4      		brne .L388
 2017 1366 1092 0000 		sts Parameter_LoopGasLimit,__zero_reg__
 2018 136a 00C0      		rjmp .L390
 2019               	.L388:
 2020 136c 8F3F      		cpi r24,lo8(-1)
 2021 136e 01F4      		brne .L390
 2022 1370 8093 0000 		sts Parameter_LoopGasLimit,r24
 2023               	.L390:
 2024 1374 8091 0000 		lds r24,EE_Parameter+41
 2025 1378 8B3F      		cpi r24,lo8(-5)
 2026 137a 00F0      		brlo .L392
 2027 137c 8B3F      		cpi r24,lo8(-5)
 2028 137e 01F4      		brne .L394
 2029 1380 8091 0000 		lds r24,Poti1
 2030 1384 00C0      		rjmp .L392
 2031               	.L394:
 2032 1386 8C3F      		cpi r24,lo8(-4)
 2033 1388 01F4      		brne .L397
 2034 138a 8091 0000 		lds r24,Poti2
 2035 138e 00C0      		rjmp .L392
 2036               	.L397:
 2037 1390 8D3F      		cpi r24,lo8(-3)
 2038 1392 01F4      		brne .L399
 2039 1394 8091 0000 		lds r24,Poti3
 2040 1398 00C0      		rjmp .L392
 2041               	.L399:
 2042 139a 8E3F      		cpi r24,lo8(-2)
 2043 139c 01F4      		brne .L396
 2044 139e 8091 0000 		lds r24,Poti4
 2045               	.L392:
 2046 13a2 8093 0000 		sts Parameter_AchsKopplung1,r24
 2047               	.L396:
 2048 13a6 8091 0000 		lds r24,Parameter_AchsKopplung1
 2049 13aa 8823      		tst r24
 2050 13ac 01F4      		brne .L402
 2051 13ae 1092 0000 		sts Parameter_AchsKopplung1,__zero_reg__
 2052 13b2 00C0      		rjmp .L404
 2053               	.L402:
 2054 13b4 8F3F      		cpi r24,lo8(-1)
 2055 13b6 01F4      		brne .L404
 2056 13b8 8093 0000 		sts Parameter_AchsKopplung1,r24
 2057               	.L404:
 2058 13bc 8091 0000 		lds r24,EE_Parameter+42
 2059 13c0 8B3F      		cpi r24,lo8(-5)
 2060 13c2 00F0      		brlo .L406
 2061 13c4 8B3F      		cpi r24,lo8(-5)
 2062 13c6 01F4      		brne .L408
 2063 13c8 8091 0000 		lds r24,Poti1
 2064 13cc 00C0      		rjmp .L406
 2065               	.L408:
 2066 13ce 8C3F      		cpi r24,lo8(-4)
 2067 13d0 01F4      		brne .L411
 2068 13d2 8091 0000 		lds r24,Poti2
 2069 13d6 00C0      		rjmp .L406
 2070               	.L411:
 2071 13d8 8D3F      		cpi r24,lo8(-3)
 2072 13da 01F4      		brne .L413
 2073 13dc 8091 0000 		lds r24,Poti3
 2074 13e0 00C0      		rjmp .L406
 2075               	.L413:
 2076 13e2 8E3F      		cpi r24,lo8(-2)
 2077 13e4 01F4      		brne .L410
 2078 13e6 8091 0000 		lds r24,Poti4
 2079               	.L406:
 2080 13ea 8093 0000 		sts Parameter_AchsGegenKopplung1,r24
 2081               	.L410:
 2082 13ee 8091 0000 		lds r24,Parameter_AchsGegenKopplung1
 2083 13f2 8823      		tst r24
 2084 13f4 01F4      		brne .L416
 2085 13f6 1092 0000 		sts Parameter_AchsGegenKopplung1,__zero_reg__
 2086 13fa 00C0      		rjmp .L418
 2087               	.L416:
 2088 13fc 8F3F      		cpi r24,lo8(-1)
 2089 13fe 01F4      		brne .L418
 2090 1400 8093 0000 		sts Parameter_AchsGegenKopplung1,r24
 2091               	.L418:
 2092 1404 8091 0000 		lds r24,EE_Parameter+47
 2093 1408 8B3F      		cpi r24,lo8(-5)
 2094 140a 00F0      		brlo .L420
 2095 140c 8B3F      		cpi r24,lo8(-5)
 2096 140e 01F4      		brne .L422
 2097 1410 8091 0000 		lds r24,Poti1
 2098 1414 00C0      		rjmp .L420
 2099               	.L422:
 2100 1416 8C3F      		cpi r24,lo8(-4)
 2101 1418 01F4      		brne .L425
 2102 141a 8091 0000 		lds r24,Poti2
 2103 141e 00C0      		rjmp .L420
 2104               	.L425:
 2105 1420 8D3F      		cpi r24,lo8(-3)
 2106 1422 01F4      		brne .L427
 2107 1424 8091 0000 		lds r24,Poti3
 2108 1428 00C0      		rjmp .L420
 2109               	.L427:
 2110 142a 8E3F      		cpi r24,lo8(-2)
 2111 142c 01F4      		brne .L424
 2112 142e 8091 0000 		lds r24,Poti4
 2113               	.L420:
 2114 1432 8093 0000 		sts Parameter_DynamicStability,r24
 2115               	.L424:
 2116 1436 8091 0000 		lds r24,Parameter_DynamicStability
 2117 143a 8823      		tst r24
 2118 143c 01F4      		brne .L430
 2119 143e 1092 0000 		sts Parameter_DynamicStability,__zero_reg__
 2120 1442 00C0      		rjmp .L432
 2121               	.L430:
 2122 1444 8F3F      		cpi r24,lo8(-1)
 2123 1446 01F4      		brne .L432
 2124 1448 8093 0000 		sts Parameter_DynamicStability,r24
 2125               	.L432:
 2126 144c 6091 0000 		lds r22,Parameter_I_Faktor
 2127 1450 70E0      		ldi r23,lo8(0)
 2128 1452 80E0      		ldi r24,lo8(0)
 2129 1454 90E0      		ldi r25,hi8(0)
 2130 1456 0E94 0000 		call __floatunsisf
 2131 145a 27E1      		ldi r18,lo8(0x38d1b717)
 2132 145c 37EB      		ldi r19,hi8(0x38d1b717)
 2133 145e 41ED      		ldi r20,hlo8(0x38d1b717)
 2134 1460 58E3      		ldi r21,hhi8(0x38d1b717)
 2135 1462 0E94 0000 		call __mulsf3
 2136 1466 6093 0000 		sts Ki,r22
 2137 146a 7093 0000 		sts (Ki)+1,r23
 2138 146e 8093 0000 		sts (Ki)+2,r24
 2139 1472 9093 0000 		sts (Ki)+3,r25
 2140 1476 8091 0000 		lds r24,EE_Parameter+19
 2141 147a 8093 0000 		sts MAX_GAS,r24
 2142 147e 8091 0000 		lds r24,EE_Parameter+18
 2143 1482 8093 0000 		sts MIN_GAS,r24
 2144               	/* epilogue: frame size=0 */
 2145 1486 0895      		ret
 2146               	/* epilogue end (size=1) */
 2147               	/* function ParameterZuordnung size 787 (786) */
 2149               	.global	SendMotorData
 2151               	SendMotorData:
 2152               	/* prologue: frame size=0 */
 2153               	/* prologue end (size=0) */
 2154 1488 8091 0000 		lds r24,MotorenEin
 2155 148c 8823      		tst r24
 2156 148e 01F4      		brne .L437
 2157 1490 1092 0000 		sts Motor_Hinten,__zero_reg__
 2158 1494 1092 0000 		sts Motor_Vorne,__zero_reg__
 2159 1498 1092 0000 		sts Motor_Rechts,__zero_reg__
 2160 149c 1092 0000 		sts Motor_Links,__zero_reg__
 2161 14a0 8091 0000 		lds r24,MotorTest
 2162 14a4 8823      		tst r24
 2163 14a6 01F0      		breq .L439
 2164 14a8 8093 0000 		sts Motor_Vorne,r24
 2165               	.L439:
 2166 14ac 8091 0000 		lds r24,MotorTest+1
 2167 14b0 8823      		tst r24
 2168 14b2 01F0      		breq .L441
 2169 14b4 8093 0000 		sts Motor_Hinten,r24
 2170               	.L441:
 2171 14b8 8091 0000 		lds r24,MotorTest+2
 2172 14bc 8823      		tst r24
 2173 14be 01F0      		breq .L443
 2174 14c0 8093 0000 		sts Motor_Links,r24
 2175               	.L443:
 2176 14c4 8091 0000 		lds r24,MotorTest+3
 2177 14c8 8823      		tst r24
 2178 14ca 01F0      		breq .L437
 2179 14cc 8093 0000 		sts Motor_Rechts,r24
 2180               	.L437:
 2181 14d0 8091 0000 		lds r24,Motor_Vorne
 2182 14d4 90E0      		ldi r25,lo8(0)
 2183 14d6 9093 0000 		sts (DebugOut+26)+1,r25
 2184 14da 8093 0000 		sts DebugOut+26,r24
 2185 14de 8091 0000 		lds r24,Motor_Hinten
 2186 14e2 90E0      		ldi r25,lo8(0)
 2187 14e4 9093 0000 		sts (DebugOut+28)+1,r25
 2188 14e8 8093 0000 		sts DebugOut+28,r24
 2189 14ec 8091 0000 		lds r24,Motor_Links
 2190 14f0 90E0      		ldi r25,lo8(0)
 2191 14f2 9093 0000 		sts (DebugOut+30)+1,r25
 2192 14f6 8093 0000 		sts DebugOut+30,r24
 2193 14fa 8091 0000 		lds r24,Motor_Rechts
 2194 14fe 90E0      		ldi r25,lo8(0)
 2195 1500 9093 0000 		sts (DebugOut+32)+1,r25
 2196 1504 8093 0000 		sts DebugOut+32,r24
 2197 1508 1092 0000 		sts twi_state,__zero_reg__
 2198 150c 1092 0000 		sts motor,__zero_reg__
 2199 1510 0E94 0000 		call i2c_start
 2200               	/* epilogue: frame size=0 */
 2201 1514 0895      		ret
 2202               	/* epilogue end (size=1) */
 2203               	/* function SendMotorData size 71 (70) */
 2205               	.global	SetNeutral
 2207               	SetNeutral:
 2208               	/* prologue: frame size=0 */
 2209               	/* prologue end (size=0) */
 2210 1516 1092 0000 		sts (NeutralAccX)+1,__zero_reg__
 2211 151a 1092 0000 		sts NeutralAccX,__zero_reg__
 2212 151e 1092 0000 		sts (NeutralAccY)+1,__zero_reg__
 2213 1522 1092 0000 		sts NeutralAccY,__zero_reg__
 2214 1526 80E0      		ldi r24,lo8(0x0)
 2215 1528 90E0      		ldi r25,hi8(0x0)
 2216 152a A0E0      		ldi r26,hlo8(0x0)
 2217 152c B0E0      		ldi r27,hhi8(0x0)
 2218 152e 8093 0000 		sts NeutralAccZ,r24
 2219 1532 9093 0000 		sts (NeutralAccZ)+1,r25
 2220 1536 A093 0000 		sts (NeutralAccZ)+2,r26
 2221 153a B093 0000 		sts (NeutralAccZ)+3,r27
 2222 153e 1092 0000 		sts (AdNeutralNick)+1,__zero_reg__
 2223 1542 1092 0000 		sts AdNeutralNick,__zero_reg__
 2224 1546 1092 0000 		sts (AdNeutralRoll)+1,__zero_reg__
 2225 154a 1092 0000 		sts AdNeutralRoll,__zero_reg__
 2226 154e 1092 0000 		sts (AdNeutralGier)+1,__zero_reg__
 2227 1552 1092 0000 		sts AdNeutralGier,__zero_reg__
 2228 1556 1092 0000 		sts Parameter_AchsKopplung1,__zero_reg__
 2229 155a 1092 0000 		sts Parameter_AchsGegenKopplung1,__zero_reg__
 2230 155e 0E94 0000 		call CalibrierMittelwert
 2231 1562 84E6      		ldi r24,lo8(100)
 2232 1564 90E0      		ldi r25,hi8(100)
 2233 1566 0E94 0000 		call Delay_ms_Mess
 2234 156a 0E94 0000 		call CalibrierMittelwert
 2235 156e 8091 0000 		lds r24,EE_Parameter+8
 2236 1572 80FF      		sbrs r24,0
 2237 1574 00C0      		rjmp .L448
 2238 1576 8091 0000 		lds r24,MessLuftdruck
 2239 157a 9091 0000 		lds r25,(MessLuftdruck)+1
 2240 157e 875B      		subi r24,lo8(951)
 2241 1580 9340      		sbci r25,hi8(951)
 2242 1582 00F4      		brsh .L450
 2243 1584 8091 0000 		lds r24,MessLuftdruck
 2244 1588 9091 0000 		lds r25,(MessLuftdruck)+1
 2245 158c 8E5E      		subi r24,lo8(750)
 2246 158e 9240      		sbci r25,hi8(750)
 2247 1590 00F4      		brsh .L448
 2248               	.L450:
 2249 1592 0E94 0000 		call SucheLuftruckOffset
 2250               	.L448:
 2251 1596 8091 0000 		lds r24,AdWertNick
 2252 159a 9091 0000 		lds r25,(AdWertNick)+1
 2253 159e 9093 0000 		sts (AdNeutralNick)+1,r25
 2254 15a2 8093 0000 		sts AdNeutralNick,r24
 2255 15a6 8091 0000 		lds r24,AdWertRoll
 2256 15aa 9091 0000 		lds r25,(AdWertRoll)+1
 2257 15ae 9093 0000 		sts (AdNeutralRoll)+1,r25
 2258 15b2 8093 0000 		sts AdNeutralRoll,r24
 2259 15b6 8091 0000 		lds r24,AdWertGier
 2260 15ba 9091 0000 		lds r25,(AdWertGier)+1
 2261 15be 9093 0000 		sts (AdNeutralGier)+1,r25
 2262 15c2 8093 0000 		sts AdNeutralGier,r24
 2263 15c6 8091 0000 		lds r24,AdNeutralRoll
 2264 15ca 9091 0000 		lds r25,(AdNeutralRoll)+1
 2265 15ce 9093 0000 		sts (StartNeutralRoll)+1,r25
 2266 15d2 8093 0000 		sts StartNeutralRoll,r24
 2267 15d6 8091 0000 		lds r24,AdNeutralNick
 2268 15da 9091 0000 		lds r25,(AdNeutralNick)+1
 2269 15de 9093 0000 		sts (StartNeutralNick)+1,r25
 2270 15e2 8093 0000 		sts StartNeutralNick,r24
 2271 15e6 40E0      		ldi r20,lo8(EEPromArray+4)
 2272 15e8 50E0      		ldi r21,hi8(EEPromArray+4)
 2273 15ea DA01      		movw r26,r20
 2274               	/* #APP */
 2275 15ec 0E94 0000 		call __eeprom_read_byte_1F2021
 2276 15f0 802D      		mov r24,__tmp_reg__
 2277               	/* #NOAPP */
 2278 15f2 8530      		cpi r24,lo8(5)
 2279 15f4 00F0      		brlo .L452
 2280 15f6 8091 0000 		lds r24,Mittelwert_AccRoll
 2281 15fa 9091 0000 		lds r25,(Mittelwert_AccRoll)+1
 2282 15fe 97FF      		sbrs r25,7
 2283 1600 00C0      		rjmp .L454
 2284 1602 9095      		com r25
 2285 1604 8195      		neg r24
 2286 1606 9F4F      		sbci r25,lo8(-1)
 2287               	.L454:
 2288 1608 6CE0      		ldi r22,lo8(12)
 2289 160a 70E0      		ldi r23,hi8(12)
 2290 160c 0E94 0000 		call __divmodhi4
 2291 1610 7093 0000 		sts (NeutralAccY)+1,r23
 2292 1614 6093 0000 		sts NeutralAccY,r22
 2293 1618 8091 0000 		lds r24,Mittelwert_AccNick
 2294 161c 9091 0000 		lds r25,(Mittelwert_AccNick)+1
 2295 1620 97FF      		sbrs r25,7
 2296 1622 00C0      		rjmp .L455
 2297 1624 9095      		com r25
 2298 1626 8195      		neg r24
 2299 1628 9F4F      		sbci r25,lo8(-1)
 2300               	.L455:
 2301 162a 6CE0      		ldi r22,lo8(12)
 2302 162c 70E0      		ldi r23,hi8(12)
 2303 162e 0E94 0000 		call __divmodhi4
 2304 1632 7093 0000 		sts (NeutralAccX)+1,r23
 2305 1636 6093 0000 		sts NeutralAccX,r22
 2306 163a 6091 0000 		lds r22,Aktuell_az
 2307 163e 7091 0000 		lds r23,(Aktuell_az)+1
 2308 1642 00C0      		rjmp .L458
 2309               	.L452:
 2310 1644 DA01      		movw r26,r20
 2311               	/* #APP */
 2312 1646 0E94 0000 		call __eeprom_read_byte_1F2021
 2313 164a 802D      		mov r24,__tmp_reg__
 2314               	/* #NOAPP */
 2315 164c 4F5F      		subi r20,lo8(-(1))
 2316 164e 5F4F      		sbci r21,hi8(-(1))
 2317 1650 DA01      		movw r26,r20
 2318               	/* #APP */
 2319 1652 0E94 0000 		call __eeprom_read_byte_1F2021
 2320 1656 202D      		mov r18,__tmp_reg__
 2321               	/* #NOAPP */
 2322 1658 90E0      		ldi r25,lo8(0)
 2323 165a 982F      		mov r25,r24
 2324 165c 8827      		clr r24
 2325 165e 820F      		add r24,r18
 2326 1660 911D      		adc r25,__zero_reg__
 2327 1662 9093 0000 		sts (NeutralAccX)+1,r25
 2328 1666 8093 0000 		sts NeutralAccX,r24
 2329 166a 4F5F      		subi r20,lo8(-(1))
 2330 166c 5F4F      		sbci r21,hi8(-(1))
 2331 166e DA01      		movw r26,r20
 2332               	/* #APP */
 2333 1670 0E94 0000 		call __eeprom_read_byte_1F2021
 2334 1674 802D      		mov r24,__tmp_reg__
 2335               	/* #NOAPP */
 2336 1676 4F5F      		subi r20,lo8(-(1))
 2337 1678 5F4F      		sbci r21,hi8(-(1))
 2338 167a DA01      		movw r26,r20
 2339               	/* #APP */
 2340 167c 0E94 0000 		call __eeprom_read_byte_1F2021
 2341 1680 202D      		mov r18,__tmp_reg__
 2342               	/* #NOAPP */
 2343 1682 90E0      		ldi r25,lo8(0)
 2344 1684 982F      		mov r25,r24
 2345 1686 8827      		clr r24
 2346 1688 820F      		add r24,r18
 2347 168a 911D      		adc r25,__zero_reg__
 2348 168c 9093 0000 		sts (NeutralAccY)+1,r25
 2349 1690 8093 0000 		sts NeutralAccY,r24
 2350 1694 4F5F      		subi r20,lo8(-(1))
 2351 1696 5F4F      		sbci r21,hi8(-(1))
 2352 1698 DA01      		movw r26,r20
 2353               	/* #APP */
 2354 169a 0E94 0000 		call __eeprom_read_byte_1F2021
 2355 169e 602D      		mov r22,__tmp_reg__
 2356               	/* #NOAPP */
 2357 16a0 4F5F      		subi r20,lo8(-(1))
 2358 16a2 5F4F      		sbci r21,hi8(-(1))
 2359 16a4 DA01      		movw r26,r20
 2360               	/* #APP */
 2361 16a6 0E94 0000 		call __eeprom_read_byte_1F2021
 2362 16aa 202D      		mov r18,__tmp_reg__
 2363               	/* #NOAPP */
 2364 16ac 70E0      		ldi r23,lo8(0)
 2365 16ae 762F      		mov r23,r22
 2366 16b0 6627      		clr r22
 2367 16b2 620F      		add r22,r18
 2368 16b4 711D      		adc r23,__zero_reg__
 2369               	.L458:
 2370 16b6 8827      		clr r24
 2371 16b8 77FD      		sbrc r23,7
 2372 16ba 8095      		com r24
 2373 16bc 982F      		mov r25,r24
 2374 16be 0E94 0000 		call __floatsisf
 2375 16c2 6093 0000 		sts NeutralAccZ,r22
 2376 16c6 7093 0000 		sts (NeutralAccZ)+1,r23
 2377 16ca 8093 0000 		sts (NeutralAccZ)+2,r24
 2378 16ce 9093 0000 		sts (NeutralAccZ)+3,r25
 2379 16d2 1092 0000 		sts Mess_IntegralNick,__zero_reg__
 2380 16d6 1092 0000 		sts (Mess_IntegralNick)+1,__zero_reg__
 2381 16da 1092 0000 		sts (Mess_IntegralNick)+2,__zero_reg__
 2382 16de 1092 0000 		sts (Mess_IntegralNick)+3,__zero_reg__
 2383 16e2 1092 0000 		sts Mess_IntegralNick2,__zero_reg__
 2384 16e6 1092 0000 		sts (Mess_IntegralNick2)+1,__zero_reg__
 2385 16ea 1092 0000 		sts (Mess_IntegralNick2)+2,__zero_reg__
 2386 16ee 1092 0000 		sts (Mess_IntegralNick2)+3,__zero_reg__
 2387 16f2 1092 0000 		sts Mess_IntegralRoll,__zero_reg__
 2388 16f6 1092 0000 		sts (Mess_IntegralRoll)+1,__zero_reg__
 2389 16fa 1092 0000 		sts (Mess_IntegralRoll)+2,__zero_reg__
 2390 16fe 1092 0000 		sts (Mess_IntegralRoll)+3,__zero_reg__
 2391 1702 1092 0000 		sts Mess_IntegralRoll2,__zero_reg__
 2392 1706 1092 0000 		sts (Mess_IntegralRoll2)+1,__zero_reg__
 2393 170a 1092 0000 		sts (Mess_IntegralRoll2)+2,__zero_reg__
 2394 170e 1092 0000 		sts (Mess_IntegralRoll2)+3,__zero_reg__
 2395 1712 1092 0000 		sts Mess_Integral_Gier,__zero_reg__
 2396 1716 1092 0000 		sts (Mess_Integral_Gier)+1,__zero_reg__
 2397 171a 1092 0000 		sts (Mess_Integral_Gier)+2,__zero_reg__
 2398 171e 1092 0000 		sts (Mess_Integral_Gier)+3,__zero_reg__
 2399 1722 1092 0000 		sts (MesswertNick)+1,__zero_reg__
 2400 1726 1092 0000 		sts MesswertNick,__zero_reg__
 2401 172a 1092 0000 		sts (MesswertRoll)+1,__zero_reg__
 2402 172e 1092 0000 		sts MesswertRoll,__zero_reg__
 2403 1732 1092 0000 		sts (MesswertGier)+1,__zero_reg__
 2404 1736 1092 0000 		sts MesswertGier,__zero_reg__
 2405 173a 8091 0000 		lds r24,Luftdruck
 2406 173e 9091 0000 		lds r25,(Luftdruck)+1
 2407 1742 A091 0000 		lds r26,(Luftdruck)+2
 2408 1746 B091 0000 		lds r27,(Luftdruck)+3
 2409 174a 9093 0000 		sts (StartLuftdruck)+1,r25
 2410 174e 8093 0000 		sts StartLuftdruck,r24
 2411 1752 1092 0000 		sts (HoeheD)+1,__zero_reg__
 2412 1756 1092 0000 		sts HoeheD,__zero_reg__
 2413 175a 1092 0000 		sts Mess_Integral_Hoch,__zero_reg__
 2414 175e 1092 0000 		sts (Mess_Integral_Hoch)+1,__zero_reg__
 2415 1762 1092 0000 		sts (Mess_Integral_Hoch)+2,__zero_reg__
 2416 1766 1092 0000 		sts (Mess_Integral_Hoch)+3,__zero_reg__
 2417 176a 8091 0000 		lds r24,KompassValue
 2418 176e 9091 0000 		lds r25,(KompassValue)+1
 2419 1772 9093 0000 		sts (KompassStartwert)+1,r25
 2420 1776 8093 0000 		sts KompassStartwert,r24
 2421 177a 0E94 0000 		call GPS_Neutral
 2422 177e 82E3      		ldi r24,lo8(50)
 2423 1780 90E0      		ldi r25,hi8(50)
 2424 1782 9093 0000 		sts (beeptime)+1,r25
 2425 1786 8093 0000 		sts beeptime,r24
 2426 178a 6091 0000 		lds r22,EE_Parameter+43
 2427 178e 70E0      		ldi r23,lo8(0)
 2428 1790 80E0      		ldi r24,lo8(0)
 2429 1792 90E0      		ldi r25,hi8(0)
 2430 1794 24EC      		ldi r18,lo8(2500)
 2431 1796 39E0      		ldi r19,hi8(2500)
 2432 1798 40E0      		ldi r20,hlo8(2500)
 2433 179a 50E0      		ldi r21,hhi8(2500)
 2434 179c 0E94 0000 		call __mulsi3
 2435 17a0 6093 0000 		sts Umschlag180Nick,r22
 2436 17a4 7093 0000 		sts (Umschlag180Nick)+1,r23
 2437 17a8 8093 0000 		sts (Umschlag180Nick)+2,r24
 2438 17ac 9093 0000 		sts (Umschlag180Nick)+3,r25
 2439 17b0 6091 0000 		lds r22,EE_Parameter+44
 2440 17b4 70E0      		ldi r23,lo8(0)
 2441 17b6 80E0      		ldi r24,lo8(0)
 2442 17b8 90E0      		ldi r25,hi8(0)
 2443 17ba 0E94 0000 		call __mulsi3
 2444 17be 6093 0000 		sts Umschlag180Roll,r22
 2445 17c2 7093 0000 		sts (Umschlag180Roll)+1,r23
 2446 17c6 8093 0000 		sts (Umschlag180Roll)+2,r24
 2447 17ca 9093 0000 		sts (Umschlag180Roll)+3,r25
 2448 17ce 1092 0000 		sts (ExternHoehenValue)+1,__zero_reg__
 2449 17d2 1092 0000 		sts ExternHoehenValue,__zero_reg__
 2450               	/* epilogue: frame size=0 */
 2451 17d6 0895      		ret
 2452               	/* epilogue end (size=1) */
 2453               	/* function SetNeutral size 362 (361) */
 2455               	.global	Piep
 2457               	Piep:
 2458               	/* prologue: frame size=0 */
 2459 17d8 1F93      		push r17
 2460               	/* prologue end (size=1) */
 2461 17da 182F      		mov r17,r24
 2462 17dc 00C0      		rjmp .L460
 2463               	.L461:
 2464 17de 8091 0000 		lds r24,MotorenEin
 2465 17e2 8823      		tst r24
 2466 17e4 01F4      		brne .L464
 2467 17e6 84E6      		ldi r24,lo8(100)
 2468 17e8 90E0      		ldi r25,hi8(100)
 2469 17ea 9093 0000 		sts (beeptime)+1,r25
 2470 17ee 8093 0000 		sts beeptime,r24
 2471 17f2 8AEF      		ldi r24,lo8(250)
 2472 17f4 90E0      		ldi r25,hi8(250)
 2473 17f6 0E94 0000 		call Delay_ms
 2474               	.L460:
 2475 17fa 1150      		subi r17,1
 2476 17fc 00F4      		brcc .L461
 2477               	.L464:
 2478               	/* epilogue: frame size=0 */
 2479 17fe 1F91      		pop r17
 2480 1800 0895      		ret
 2481               	/* epilogue end (size=2) */
 2482               	/* function Piep size 22 (19) */
 2484               		.data
 2485               	.LC0:
 2486 0000 4265 6769 		.string	"Beginner"
 2486      6E6E 6572 
 2486      00
 2487 0009 00        		.string	""
 2488               		.text
 2489               	.global	DefaultKonstanten3
 2491               	DefaultKonstanten3:
 2492               	/* prologue: frame size=0 */
 2493               	/* prologue end (size=0) */
 2494 1802 81E0      		ldi r24,lo8(1)
 2495 1804 8093 0000 		sts EE_Parameter,r24
 2496 1808 22E0      		ldi r18,lo8(2)
 2497 180a 2093 0000 		sts EE_Parameter+1,r18
 2498 180e 83E0      		ldi r24,lo8(3)
 2499 1810 8093 0000 		sts EE_Parameter+2,r24
 2500 1814 54E0      		ldi r21,lo8(4)
 2501 1816 5093 0000 		sts EE_Parameter+3,r21
 2502 181a 45E0      		ldi r20,lo8(5)
 2503 181c 4093 0000 		sts EE_Parameter+4,r20
 2504 1820 36E0      		ldi r19,lo8(6)
 2505 1822 3093 0000 		sts EE_Parameter+5,r19
 2506 1826 87E0      		ldi r24,lo8(7)
 2507 1828 8093 0000 		sts EE_Parameter+6,r24
 2508 182c 88E0      		ldi r24,lo8(8)
 2509 182e 8093 0000 		sts EE_Parameter+7,r24
 2510 1832 80EC      		ldi r24,lo8(-64)
 2511 1834 8093 0000 		sts EE_Parameter+8,r24
 2512 1838 9EE1      		ldi r25,lo8(30)
 2513 183a 9093 0000 		sts EE_Parameter+9,r25
 2514 183e 8BEF      		ldi r24,lo8(-5)
 2515 1840 8093 0000 		sts EE_Parameter+11,r24
 2516 1844 8AE0      		ldi r24,lo8(10)
 2517 1846 8093 0000 		sts EE_Parameter+12,r24
 2518 184a 9093 0000 		sts EE_Parameter+10,r25
 2519 184e 9093 0000 		sts EE_Parameter+14,r25
 2520 1852 2093 0000 		sts EE_Parameter+13,r18
 2521 1856 2093 0000 		sts EE_Parameter+15,r18
 2522 185a 5093 0000 		sts EE_Parameter+16,r21
 2523 185e 3093 0000 		sts EE_Parameter+17,r19
 2524 1862 8FE0      		ldi r24,lo8(15)
 2525 1864 8093 0000 		sts EE_Parameter+18,r24
 2526 1868 8AEF      		ldi r24,lo8(-6)
 2527 186a 8093 0000 		sts EE_Parameter+19,r24
 2528 186e 9093 0000 		sts EE_Parameter+20,r25
 2529 1872 80E8      		ldi r24,lo8(-128)
 2530 1874 8093 0000 		sts EE_Parameter+21,r24
 2531 1878 24E6      		ldi r18,lo8(100)
 2532 187a 2093 0000 		sts EE_Parameter+22,r18
 2533 187e 8CE8      		ldi r24,lo8(-116)
 2534 1880 8093 0000 		sts EE_Parameter+23,r24
 2535 1884 8EE5      		ldi r24,lo8(94)
 2536 1886 8093 0000 		sts EE_Parameter+24,r24
 2537 188a 83E2      		ldi r24,lo8(35)
 2538 188c 8093 0000 		sts EE_Parameter+25,r24
 2539 1890 84E1      		ldi r24,lo8(20)
 2540 1892 8093 0000 		sts EE_Parameter+26,r24
 2541 1896 1092 0000 		sts EE_Parameter+27,__zero_reg__
 2542 189a 80E1      		ldi r24,lo8(16)
 2543 189c 8093 0000 		sts EE_Parameter+28,r24
 2544 18a0 80E5      		ldi r24,lo8(80)
 2545 18a2 8093 0000 		sts EE_Parameter+29,r24
 2546 18a6 1092 0000 		sts EE_Parameter+30,__zero_reg__
 2547 18aa 1092 0000 		sts EE_Parameter+31,__zero_reg__
 2548 18ae 1092 0000 		sts EE_Parameter+32,__zero_reg__
 2549 18b2 1092 0000 		sts EE_Parameter+48,__zero_reg__
 2550 18b6 1092 0000 		sts EE_Parameter+49,__zero_reg__
 2551 18ba 1092 0000 		sts EE_Parameter+50,__zero_reg__
 2552 18be 1092 0000 		sts EE_Parameter+51,__zero_reg__
 2553 18c2 2093 0000 		sts EE_Parameter+33,r18
 2554 18c6 88E2      		ldi r24,lo8(40)
 2555 18c8 8093 0000 		sts EE_Parameter+34,r24
 2556 18cc 1092 0000 		sts EE_Parameter+53,__zero_reg__
 2557 18d0 92E3      		ldi r25,lo8(50)
 2558 18d2 9093 0000 		sts EE_Parameter+35,r25
 2559 18d6 86E9      		ldi r24,lo8(-106)
 2560 18d8 8093 0000 		sts EE_Parameter+36,r24
 2561 18dc 4093 0000 		sts EE_Parameter+37,r20
 2562 18e0 9093 0000 		sts EE_Parameter+38,r25
 2563 18e4 8AE5      		ldi r24,lo8(90)
 2564 18e6 8093 0000 		sts EE_Parameter+39,r24
 2565 18ea 9093 0000 		sts EE_Parameter+40,r25
 2566 18ee 1092 0000 		sts EE_Parameter+52,__zero_reg__
 2567 18f2 8093 0000 		sts EE_Parameter+41,r24
 2568 18f6 4093 0000 		sts EE_Parameter+42,r20
 2569 18fa 2093 0000 		sts EE_Parameter+43,r18
 2570 18fe 2093 0000 		sts EE_Parameter+44,r18
 2571 1902 80E2      		ldi r24,lo8(32)
 2572 1904 8093 0000 		sts EE_Parameter+45,r24
 2573 1908 5093 0000 		sts EE_Parameter+46,r21
 2574 190c 9093 0000 		sts EE_Parameter+47,r25
 2575 1910 A0E0      		ldi r26,lo8(EE_Parameter+58)
 2576 1912 B0E0      		ldi r27,hi8(EE_Parameter+58)
 2577 1914 E0E0      		ldi r30,lo8(.LC0)
 2578 1916 F0E0      		ldi r31,hi8(.LC0)
 2579 1918 8CE0      		ldi r24,lo8(12)
 2580               	.L466:
 2581 191a 0190      		ld r0,Z+
 2582 191c 0D92      		st X+,r0
 2583 191e 8150      		subi r24,lo8(-(-1))
 2584 1920 01F4      		brne .L466
 2585               	/* epilogue: frame size=0 */
 2586 1922 0895      		ret
 2587               	/* epilogue end (size=1) */
 2588               	/* function DefaultKonstanten3 size 146 (145) */
 2590               		.data
 2591               	.LC1:
 2592 000a 4E6F 726D 		.string	"Normal"
 2592      616C 00
 2593 0011 00        		.string	""
 2594               		.text
 2595               	.global	DefaultKonstanten2
 2597               	DefaultKonstanten2:
 2598               	/* prologue: frame size=0 */
 2599               	/* prologue end (size=0) */
 2600 1924 81E0      		ldi r24,lo8(1)
 2601 1926 8093 0000 		sts EE_Parameter,r24
 2602 192a 82E0      		ldi r24,lo8(2)
 2603 192c 8093 0000 		sts EE_Parameter+1,r24
 2604 1930 23E0      		ldi r18,lo8(3)
 2605 1932 2093 0000 		sts EE_Parameter+2,r18
 2606 1936 54E0      		ldi r21,lo8(4)
 2607 1938 5093 0000 		sts EE_Parameter+3,r21
 2608 193c 45E0      		ldi r20,lo8(5)
 2609 193e 4093 0000 		sts EE_Parameter+4,r20
 2610 1942 36E0      		ldi r19,lo8(6)
 2611 1944 3093 0000 		sts EE_Parameter+5,r19
 2612 1948 87E0      		ldi r24,lo8(7)
 2613 194a 8093 0000 		sts EE_Parameter+6,r24
 2614 194e 88E0      		ldi r24,lo8(8)
 2615 1950 8093 0000 		sts EE_Parameter+7,r24
 2616 1954 80E4      		ldi r24,lo8(64)
 2617 1956 8093 0000 		sts EE_Parameter+8,r24
 2618 195a 9EE1      		ldi r25,lo8(30)
 2619 195c 9093 0000 		sts EE_Parameter+9,r25
 2620 1960 8BEF      		ldi r24,lo8(-5)
 2621 1962 8093 0000 		sts EE_Parameter+11,r24
 2622 1966 8AE0      		ldi r24,lo8(10)
 2623 1968 8093 0000 		sts EE_Parameter+12,r24
 2624 196c 9093 0000 		sts EE_Parameter+10,r25
 2625 1970 9093 0000 		sts EE_Parameter+14,r25
 2626 1974 2093 0000 		sts EE_Parameter+13,r18
 2627 1978 2093 0000 		sts EE_Parameter+15,r18
 2628 197c 5093 0000 		sts EE_Parameter+16,r21
 2629 1980 3093 0000 		sts EE_Parameter+17,r19
 2630 1984 8FE0      		ldi r24,lo8(15)
 2631 1986 8093 0000 		sts EE_Parameter+18,r24
 2632 198a 8AEF      		ldi r24,lo8(-6)
 2633 198c 8093 0000 		sts EE_Parameter+19,r24
 2634 1990 9093 0000 		sts EE_Parameter+20,r25
 2635 1994 80E8      		ldi r24,lo8(-128)
 2636 1996 8093 0000 		sts EE_Parameter+21,r24
 2637 199a 90E5      		ldi r25,lo8(80)
 2638 199c 9093 0000 		sts EE_Parameter+22,r25
 2639 19a0 88E7      		ldi r24,lo8(120)
 2640 19a2 8093 0000 		sts EE_Parameter+23,r24
 2641 19a6 8EE5      		ldi r24,lo8(94)
 2642 19a8 8093 0000 		sts EE_Parameter+24,r24
 2643 19ac 83E2      		ldi r24,lo8(35)
 2644 19ae 8093 0000 		sts EE_Parameter+25,r24
 2645 19b2 84E1      		ldi r24,lo8(20)
 2646 19b4 8093 0000 		sts EE_Parameter+26,r24
 2647 19b8 1092 0000 		sts EE_Parameter+27,__zero_reg__
 2648 19bc 30E2      		ldi r19,lo8(32)
 2649 19be 3093 0000 		sts EE_Parameter+28,r19
 2650 19c2 9093 0000 		sts EE_Parameter+29,r25
 2651 19c6 1092 0000 		sts EE_Parameter+30,__zero_reg__
 2652 19ca 1092 0000 		sts EE_Parameter+31,__zero_reg__
 2653 19ce 1092 0000 		sts EE_Parameter+32,__zero_reg__
 2654 19d2 1092 0000 		sts EE_Parameter+48,__zero_reg__
 2655 19d6 1092 0000 		sts EE_Parameter+49,__zero_reg__
 2656 19da 1092 0000 		sts EE_Parameter+50,__zero_reg__
 2657 19de 1092 0000 		sts EE_Parameter+51,__zero_reg__
 2658 19e2 24E6      		ldi r18,lo8(100)
 2659 19e4 2093 0000 		sts EE_Parameter+33,r18
 2660 19e8 88E2      		ldi r24,lo8(40)
 2661 19ea 8093 0000 		sts EE_Parameter+34,r24
 2662 19ee 1092 0000 		sts EE_Parameter+53,__zero_reg__
 2663 19f2 92E3      		ldi r25,lo8(50)
 2664 19f4 9093 0000 		sts EE_Parameter+35,r25
 2665 19f8 86E9      		ldi r24,lo8(-106)
 2666 19fa 8093 0000 		sts EE_Parameter+36,r24
 2667 19fe 4093 0000 		sts EE_Parameter+37,r20
 2668 1a02 9093 0000 		sts EE_Parameter+38,r25
 2669 1a06 8AE5      		ldi r24,lo8(90)
 2670 1a08 8093 0000 		sts EE_Parameter+39,r24
 2671 1a0c 9093 0000 		sts EE_Parameter+40,r25
 2672 1a10 1092 0000 		sts EE_Parameter+52,__zero_reg__
 2673 1a14 8093 0000 		sts EE_Parameter+41,r24
 2674 1a18 4093 0000 		sts EE_Parameter+42,r20
 2675 1a1c 2093 0000 		sts EE_Parameter+43,r18
 2676 1a20 2093 0000 		sts EE_Parameter+44,r18
 2677 1a24 3093 0000 		sts EE_Parameter+45,r19
 2678 1a28 5093 0000 		sts EE_Parameter+46,r21
 2679 1a2c 8BE4      		ldi r24,lo8(75)
 2680 1a2e 8093 0000 		sts EE_Parameter+47,r24
 2681 1a32 A0E0      		ldi r26,lo8(EE_Parameter+58)
 2682 1a34 B0E0      		ldi r27,hi8(EE_Parameter+58)
 2683 1a36 E0E0      		ldi r30,lo8(.LC1)
 2684 1a38 F0E0      		ldi r31,hi8(.LC1)
 2685 1a3a 8CE0      		ldi r24,lo8(12)
 2686               	.L471:
 2687 1a3c 0190      		ld r0,Z+
 2688 1a3e 0D92      		st X+,r0
 2689 1a40 8150      		subi r24,lo8(-(-1))
 2690 1a42 01F4      		brne .L471
 2691               	/* epilogue: frame size=0 */
 2692 1a44 0895      		ret
 2693               	/* epilogue end (size=1) */
 2694               	/* function DefaultKonstanten2 size 146 (145) */
 2696               		.data
 2697               	.LC2:
 2698 0012 5370 6F72 		.string	"Sport"
 2698      7400 
 2699 0018 00        		.string	""
 2700               		.text
 2701               	.global	DefaultKonstanten1
 2703               	DefaultKonstanten1:
 2704               	/* prologue: frame size=0 */
 2705               	/* prologue end (size=0) */
 2706 1a46 81E0      		ldi r24,lo8(1)
 2707 1a48 8093 0000 		sts EE_Parameter,r24
 2708 1a4c 82E0      		ldi r24,lo8(2)
 2709 1a4e 8093 0000 		sts EE_Parameter+1,r24
 2710 1a52 83E0      		ldi r24,lo8(3)
 2711 1a54 8093 0000 		sts EE_Parameter+2,r24
 2712 1a58 34E0      		ldi r19,lo8(4)
 2713 1a5a 3093 0000 		sts EE_Parameter+3,r19
 2714 1a5e 45E0      		ldi r20,lo8(5)
 2715 1a60 4093 0000 		sts EE_Parameter+4,r20
 2716 1a64 86E0      		ldi r24,lo8(6)
 2717 1a66 8093 0000 		sts EE_Parameter+5,r24
 2718 1a6a 87E0      		ldi r24,lo8(7)
 2719 1a6c 8093 0000 		sts EE_Parameter+6,r24
 2720 1a70 28E0      		ldi r18,lo8(8)
 2721 1a72 2093 0000 		sts EE_Parameter+7,r18
 2722 1a76 80E4      		ldi r24,lo8(64)
 2723 1a78 8093 0000 		sts EE_Parameter+8,r24
 2724 1a7c 9EE1      		ldi r25,lo8(30)
 2725 1a7e 9093 0000 		sts EE_Parameter+9,r25
 2726 1a82 8BEF      		ldi r24,lo8(-5)
 2727 1a84 8093 0000 		sts EE_Parameter+11,r24
 2728 1a88 8AE0      		ldi r24,lo8(10)
 2729 1a8a 8093 0000 		sts EE_Parameter+12,r24
 2730 1a8e 9093 0000 		sts EE_Parameter+10,r25
 2731 1a92 9093 0000 		sts EE_Parameter+14,r25
 2732 1a96 3093 0000 		sts EE_Parameter+13,r19
 2733 1a9a 3093 0000 		sts EE_Parameter+15,r19
 2734 1a9e 2093 0000 		sts EE_Parameter+16,r18
 2735 1aa2 8CE0      		ldi r24,lo8(12)
 2736 1aa4 8093 0000 		sts EE_Parameter+17,r24
 2737 1aa8 8FE0      		ldi r24,lo8(15)
 2738 1aaa 8093 0000 		sts EE_Parameter+18,r24
 2739 1aae 8AEF      		ldi r24,lo8(-6)
 2740 1ab0 8093 0000 		sts EE_Parameter+19,r24
 2741 1ab4 9093 0000 		sts EE_Parameter+20,r25
 2742 1ab8 90E8      		ldi r25,lo8(-128)
 2743 1aba 9093 0000 		sts EE_Parameter+21,r25
 2744 1abe 80E5      		ldi r24,lo8(80)
 2745 1ac0 8093 0000 		sts EE_Parameter+22,r24
 2746 1ac4 56E9      		ldi r21,lo8(-106)
 2747 1ac6 5093 0000 		sts EE_Parameter+23,r21
 2748 1aca 8EE5      		ldi r24,lo8(94)
 2749 1acc 8093 0000 		sts EE_Parameter+24,r24
 2750 1ad0 83E2      		ldi r24,lo8(35)
 2751 1ad2 8093 0000 		sts EE_Parameter+25,r24
 2752 1ad6 84E1      		ldi r24,lo8(20)
 2753 1ad8 8093 0000 		sts EE_Parameter+26,r24
 2754 1adc 1092 0000 		sts EE_Parameter+27,__zero_reg__
 2755 1ae0 80E2      		ldi r24,lo8(32)
 2756 1ae2 8093 0000 		sts EE_Parameter+28,r24
 2757 1ae6 9093 0000 		sts EE_Parameter+29,r25
 2758 1aea 1092 0000 		sts EE_Parameter+30,__zero_reg__
 2759 1aee 1092 0000 		sts EE_Parameter+31,__zero_reg__
 2760 1af2 1092 0000 		sts EE_Parameter+32,__zero_reg__
 2761 1af6 1092 0000 		sts EE_Parameter+48,__zero_reg__
 2762 1afa 1092 0000 		sts EE_Parameter+49,__zero_reg__
 2763 1afe 1092 0000 		sts EE_Parameter+50,__zero_reg__
 2764 1b02 1092 0000 		sts EE_Parameter+51,__zero_reg__
 2765 1b06 24E6      		ldi r18,lo8(100)
 2766 1b08 2093 0000 		sts EE_Parameter+33,r18
 2767 1b0c 88E2      		ldi r24,lo8(40)
 2768 1b0e 8093 0000 		sts EE_Parameter+34,r24
 2769 1b12 1092 0000 		sts EE_Parameter+53,__zero_reg__
 2770 1b16 82E3      		ldi r24,lo8(50)
 2771 1b18 8093 0000 		sts EE_Parameter+35,r24
 2772 1b1c 5093 0000 		sts EE_Parameter+36,r21
 2773 1b20 4093 0000 		sts EE_Parameter+37,r20
 2774 1b24 8093 0000 		sts EE_Parameter+38,r24
 2775 1b28 9AE5      		ldi r25,lo8(90)
 2776 1b2a 9093 0000 		sts EE_Parameter+39,r25
 2777 1b2e 8093 0000 		sts EE_Parameter+40,r24
 2778 1b32 1092 0000 		sts EE_Parameter+52,__zero_reg__
 2779 1b36 9093 0000 		sts EE_Parameter+41,r25
 2780 1b3a 4093 0000 		sts EE_Parameter+42,r20
 2781 1b3e 2093 0000 		sts EE_Parameter+43,r18
 2782 1b42 2093 0000 		sts EE_Parameter+44,r18
 2783 1b46 80E1      		ldi r24,lo8(16)
 2784 1b48 8093 0000 		sts EE_Parameter+45,r24
 2785 1b4c 3093 0000 		sts EE_Parameter+46,r19
 2786 1b50 2093 0000 		sts EE_Parameter+47,r18
 2787 1b54 A0E0      		ldi r26,lo8(EE_Parameter+58)
 2788 1b56 B0E0      		ldi r27,hi8(EE_Parameter+58)
 2789 1b58 E0E0      		ldi r30,lo8(.LC2)
 2790 1b5a F0E0      		ldi r31,hi8(.LC2)
 2791 1b5c 8CE0      		ldi r24,lo8(12)
 2792               	.L476:
 2793 1b5e 0190      		ld r0,Z+
 2794 1b60 0D92      		st X+,r0
 2795 1b62 8150      		subi r24,lo8(-(-1))
 2796 1b64 01F4      		brne .L476
 2797               	/* epilogue: frame size=0 */
 2798 1b66 0895      		ret
 2799               	/* epilogue end (size=1) */
 2800               	/* function DefaultKonstanten1 size 146 (145) */
 2802               	.global	MotorRegler
 2804               	MotorRegler:
 2805               	/* prologue: frame size=38 */
 2806 1b68 2F92      		push r2
 2807 1b6a 3F92      		push r3
 2808 1b6c 4F92      		push r4
 2809 1b6e 5F92      		push r5
 2810 1b70 6F92      		push r6
 2811 1b72 7F92      		push r7
 2812 1b74 8F92      		push r8
 2813 1b76 9F92      		push r9
 2814 1b78 AF92      		push r10
 2815 1b7a BF92      		push r11
 2816 1b7c CF92      		push r12
 2817 1b7e DF92      		push r13
 2818 1b80 EF92      		push r14
 2819 1b82 FF92      		push r15
 2820 1b84 0F93      		push r16
 2821 1b86 1F93      		push r17
 2822 1b88 CF93      		push r28
 2823 1b8a DF93      		push r29
 2824 1b8c CDB7      		in r28,__SP_L__
 2825 1b8e DEB7      		in r29,__SP_H__
 2826 1b90 A697      		sbiw r28,38
 2827 1b92 0FB6      		in __tmp_reg__,__SREG__
 2828 1b94 F894      		cli
 2829 1b96 DEBF      		out __SP_H__,r29
 2830 1b98 0FBE      		out __SREG__,__tmp_reg__
 2831 1b9a CDBF      		out __SP_L__,r28
 2832               	/* prologue end (size=26) */
 2833 1b9c 0E94 0000 		call Mittelwert
 2834 1ba0 299A      		sbi 37-0x20,1
 2835 1ba2 2091 0000 		lds r18,StickGas
 2836 1ba6 3091 0000 		lds r19,(StickGas)+1
 2837 1baa 3C87      		std Y+12,r19
 2838 1bac 2B87      		std Y+11,r18
 2839 1bae 37FF      		sbrs r19,7
 2840 1bb0 00C0      		rjmp .L481
 2841 1bb2 1C86      		std Y+12,__zero_reg__
 2842 1bb4 1B86      		std Y+11,__zero_reg__
 2843               	.L481:
 2844 1bb6 8091 0000 		lds r24,SenderOkay
 2845 1bba 8436      		cpi r24,lo8(100)
 2846 1bbc 00F0      		brlo .+2
 2847 1bbe 00C0      		rjmp .L482
 2848 1bc0 8091 0000 		lds r24,PcZugriff
 2849 1bc4 8823      		tst r24
 2850 1bc6 01F4      		brne .L484
 2851 1bc8 8091 0000 		lds r24,BeepMuster
 2852 1bcc 9091 0000 		lds r25,(BeepMuster)+1
 2853 1bd0 8F5F      		subi r24,lo8(-1)
 2854 1bd2 9F4F      		sbci r25,hi8(-1)
 2855 1bd4 01F4      		brne .L484
 2856 1bd6 88E9      		ldi r24,lo8(15000)
 2857 1bd8 9AE3      		ldi r25,hi8(15000)
 2858 1bda 9093 0000 		sts (beeptime)+1,r25
 2859 1bde 8093 0000 		sts beeptime,r24
 2860 1be2 80E0      		ldi r24,lo8(3072)
 2861 1be4 9CE0      		ldi r25,hi8(3072)
 2862 1be6 9093 0000 		sts (BeepMuster)+1,r25
 2863 1bea 8093 0000 		sts BeepMuster,r24
 2864               	.L484:
 2865 1bee 8091 0000 		lds r24,RcLostTimer.2784
 2866 1bf2 9091 0000 		lds r25,(RcLostTimer.2784)+1
 2867 1bf6 0097      		sbiw r24,0
 2868 1bf8 01F0      		breq .L487
 2869 1bfa 0197      		sbiw r24,1
 2870 1bfc 9093 0000 		sts (RcLostTimer.2784)+1,r25
 2871 1c00 8093 0000 		sts RcLostTimer.2784,r24
 2872 1c04 00C0      		rjmp .L489
 2873               	.L487:
 2874 1c06 1092 0000 		sts MotorenEin,__zero_reg__
 2875 1c0a 1092 0000 		sts Notlandung,__zero_reg__
 2876               	.L489:
 2877 1c0e 8091 0000 		lds r24,PlatinenVersion
 2878 1c12 8A30      		cpi r24,lo8(10)
 2879 1c14 01F4      		brne .L490
 2880 1c16 289A      		sbi 37-0x20,0
 2881 1c18 00C0      		rjmp .L492
 2882               	.L490:
 2883 1c1a 2898      		cbi 37-0x20,0
 2884               	.L492:
 2885 1c1c 8091 0000 		lds r24,modell_fliegt.2788
 2886 1c20 9091 0000 		lds r25,(modell_fliegt.2788)+1
 2887 1c24 815D      		subi r24,lo8(2001)
 2888 1c26 9740      		sbci r25,hi8(2001)
 2889 1c28 00F0      		brlo .L493
 2890 1c2a 8091 0000 		lds r24,EE_Parameter+25
 2891 1c2e 682F      		mov r22,r24
 2892 1c30 70E0      		ldi r23,lo8(0)
 2893 1c32 7C87      		std Y+12,r23
 2894 1c34 6B87      		std Y+11,r22
 2895 1c36 81E0      		ldi r24,lo8(1)
 2896 1c38 8093 0000 		sts Notlandung,r24
 2897 1c3c E091 0000 		lds r30,EE_Parameter
 2898 1c40 F0E0      		ldi r31,lo8(0)
 2899 1c42 EE0F      		lsl r30
 2900 1c44 FF1F      		rol r31
 2901 1c46 E050      		subi r30,lo8(-(PPM_in))
 2902 1c48 F040      		sbci r31,hi8(-(PPM_in))
 2903 1c4a 1182      		std Z+1,__zero_reg__
 2904 1c4c 1082      		st Z,__zero_reg__
 2905 1c4e E091 0000 		lds r30,EE_Parameter+1
 2906 1c52 F0E0      		ldi r31,lo8(0)
 2907 1c54 EE0F      		lsl r30
 2908 1c56 FF1F      		rol r31
 2909 1c58 E050      		subi r30,lo8(-(PPM_in))
 2910 1c5a F040      		sbci r31,hi8(-(PPM_in))
 2911 1c5c 1182      		std Z+1,__zero_reg__
 2912 1c5e 1082      		st Z,__zero_reg__
 2913 1c60 E091 0000 		lds r30,EE_Parameter+3
 2914 1c64 F0E0      		ldi r31,lo8(0)
 2915 1c66 EE0F      		lsl r30
 2916 1c68 FF1F      		rol r31
 2917 1c6a E050      		subi r30,lo8(-(PPM_in))
 2918 1c6c F040      		sbci r31,hi8(-(PPM_in))
 2919 1c6e 1182      		std Z+1,__zero_reg__
 2920 1c70 1082      		st Z,__zero_reg__
 2921 1c72 00C0      		rjmp .L495
 2922               	.L493:
 2923 1c74 1092 0000 		sts MotorenEin,__zero_reg__
 2924 1c78 00C0      		rjmp .L495
 2925               	.L482:
 2926 1c7a 8091 0000 		lds r24,SenderOkay
 2927 1c7e 8D38      		cpi r24,lo8(-115)
 2928 1c80 00F4      		brsh .+2
 2929 1c82 00C0      		rjmp .L495
 2930 1c84 1092 0000 		sts Notlandung,__zero_reg__
 2931 1c88 8091 0000 		lds r24,EE_Parameter+26
 2932 1c8c 22E3      		ldi r18,lo8(50)
 2933 1c8e 829F      		mul r24,r18
 2934 1c90 C001      		movw r24,r0
 2935 1c92 1124      		clr r1
 2936 1c94 9093 0000 		sts (RcLostTimer.2784)+1,r25
 2937 1c98 8093 0000 		sts RcLostTimer.2784,r24
 2938 1c9c 8B85      		ldd r24,Y+11
 2939 1c9e 9C85      		ldd r25,Y+12
 2940 1ca0 8997      		sbiw r24,41
 2941 1ca2 04F0      		brlt .L497
 2942 1ca4 8091 0000 		lds r24,modell_fliegt.2788
 2943 1ca8 9091 0000 		lds r25,(modell_fliegt.2788)+1
 2944 1cac AFEF      		ldi r26,hi8(-1)
 2945 1cae 8F3F      		cpi r24,lo8(-1)
 2946 1cb0 9A07      		cpc r25,r26
 2947 1cb2 01F0      		breq .L497
 2948 1cb4 0196      		adiw r24,1
 2949 1cb6 9093 0000 		sts (modell_fliegt.2788)+1,r25
 2950 1cba 8093 0000 		sts modell_fliegt.2788,r24
 2951               	.L497:
 2952 1cbe 8091 0000 		lds r24,modell_fliegt.2788
 2953 1cc2 9091 0000 		lds r25,(modell_fliegt.2788)+1
 2954 1cc6 883C      		cpi r24,200
 2955 1cc8 9105      		cpc r25,__zero_reg__
 2956 1cca 00F0      		brlo .L500
 2957 1ccc EB85      		ldd r30,Y+11
 2958 1cce FC85      		ldd r31,Y+12
 2959 1cd0 B897      		sbiw r30,40
 2960 1cd2 04F4      		brge .L502
 2961               	.L500:
 2962 1cd4 1092 0000 		sts SummeNick.2777,__zero_reg__
 2963 1cd8 1092 0000 		sts (SummeNick.2777)+1,__zero_reg__
 2964 1cdc 1092 0000 		sts (SummeNick.2777)+2,__zero_reg__
 2965 1ce0 1092 0000 		sts (SummeNick.2777)+3,__zero_reg__
 2966 1ce4 1092 0000 		sts SummeRoll.2778,__zero_reg__
 2967 1ce8 1092 0000 		sts (SummeRoll.2778)+1,__zero_reg__
 2968 1cec 1092 0000 		sts (SummeRoll.2778)+2,__zero_reg__
 2969 1cf0 1092 0000 		sts (SummeRoll.2778)+3,__zero_reg__
 2970 1cf4 1092 0000 		sts Mess_Integral_Gier,__zero_reg__
 2971 1cf8 1092 0000 		sts (Mess_Integral_Gier)+1,__zero_reg__
 2972 1cfc 1092 0000 		sts (Mess_Integral_Gier)+2,__zero_reg__
 2973 1d00 1092 0000 		sts (Mess_Integral_Gier)+3,__zero_reg__
 2974 1d04 1092 0000 		sts Mess_Integral_Gier2,__zero_reg__
 2975 1d08 1092 0000 		sts (Mess_Integral_Gier2)+1,__zero_reg__
 2976 1d0c 1092 0000 		sts (Mess_Integral_Gier2)+2,__zero_reg__
 2977 1d10 1092 0000 		sts (Mess_Integral_Gier2)+3,__zero_reg__
 2978               	.L502:
 2979 1d14 E091 0000 		lds r30,EE_Parameter+2
 2980 1d18 F0E0      		ldi r31,lo8(0)
 2981 1d1a EE0F      		lsl r30
 2982 1d1c FF1F      		rol r31
 2983 1d1e E050      		subi r30,lo8(-(PPM_in))
 2984 1d20 F040      		sbci r31,hi8(-(PPM_in))
 2985 1d22 8081      		ld r24,Z
 2986 1d24 9181      		ldd r25,Z+1
 2987 1d26 8135      		cpi r24,81
 2988 1d28 9105      		cpc r25,__zero_reg__
 2989 1d2a 04F4      		brge .+2
 2990 1d2c 00C0      		rjmp .L503
 2991 1d2e 8091 0000 		lds r24,MotorenEin
 2992 1d32 8823      		tst r24
 2993 1d34 01F0      		breq .+2
 2994 1d36 00C0      		rjmp .L503
 2995 1d38 8091 0000 		lds r24,EE_Parameter+3
 2996 1d3c E82F      		mov r30,r24
 2997 1d3e F0E0      		ldi r31,lo8(0)
 2998 1d40 EE0F      		lsl r30
 2999 1d42 FF1F      		rol r31
 3000 1d44 E050      		subi r30,lo8(-(PPM_in))
 3001 1d46 F040      		sbci r31,hi8(-(PPM_in))
 3002 1d48 8081      		ld r24,Z
 3003 1d4a 9181      		ldd r25,Z+1
 3004 1d4c 8C34      		cpi r24,76
 3005 1d4e 9105      		cpc r25,__zero_reg__
 3006 1d50 04F4      		brge .+2
 3007 1d52 00C0      		rjmp .L506
 3008 1d54 8091 0000 		lds r24,delay_neutral.2785
 3009 1d58 8F5F      		subi r24,lo8(-(1))
 3010 1d5a 8093 0000 		sts delay_neutral.2785,r24
 3011 1d5e 893C      		cpi r24,lo8(-55)
 3012 1d60 00F4      		brsh .+2
 3013 1d62 00C0      		rjmp .L503
 3014 1d64 2998      		cbi 37-0x20,1
 3015 1d66 1092 0000 		sts MotorenEin,__zero_reg__
 3016 1d6a 1092 0000 		sts delay_neutral.2785,__zero_reg__
 3017 1d6e 1092 0000 		sts (modell_fliegt.2788)+1,__zero_reg__
 3018 1d72 1092 0000 		sts modell_fliegt.2788,__zero_reg__
 3019 1d76 8091 0000 		lds r24,EE_Parameter
 3020 1d7a 282F      		mov r18,r24
 3021 1d7c 30E0      		ldi r19,lo8(0)
 3022 1d7e F901      		movw r30,r18
 3023 1d80 EE0F      		lsl r30
 3024 1d82 FF1F      		rol r31
 3025 1d84 E050      		subi r30,lo8(-(PPM_in))
 3026 1d86 F040      		sbci r31,hi8(-(PPM_in))
 3027 1d88 8081      		ld r24,Z
 3028 1d8a 9181      		ldd r25,Z+1
 3029 1d8c 8734      		cpi r24,71
 3030 1d8e 9105      		cpc r25,__zero_reg__
 3031 1d90 04F4      		brge .L509
 3032 1d92 E091 0000 		lds r30,EE_Parameter+1
 3033 1d96 F0E0      		ldi r31,lo8(0)
 3034 1d98 EE0F      		lsl r30
 3035 1d9a FF1F      		rol r31
 3036 1d9c E050      		subi r30,lo8(-(PPM_in))
 3037 1d9e F040      		sbci r31,hi8(-(PPM_in))
 3038 1da0 0190      		ld __tmp_reg__,Z+
 3039 1da2 F081      		ld r31,Z
 3040 1da4 E02D      		mov r30,__tmp_reg__
 3041 1da6 F7FF      		sbrs r31,7
 3042 1da8 00C0      		rjmp .L512
 3043 1daa F095      		com r31
 3044 1dac E195      		neg r30
 3045 1dae FF4F      		sbci r31,lo8(-1)
 3046               	.L512:
 3047 1db0 E734      		cpi r30,71
 3048 1db2 F105      		cpc r31,__zero_reg__
 3049 1db4 04F4      		brge .+2
 3050 1db6 00C0      		rjmp .L511
 3051               	.L509:
 3052 1db8 8091 0000 		lds r24,EE_Parameter+1
 3053 1dbc 682F      		mov r22,r24
 3054 1dbe 70E0      		ldi r23,lo8(0)
 3055 1dc0 DB01      		movw r26,r22
 3056 1dc2 AA0F      		lsl r26
 3057 1dc4 BB1F      		rol r27
 3058 1dc6 A050      		subi r26,lo8(-(PPM_in))
 3059 1dc8 B040      		sbci r27,hi8(-(PPM_in))
 3060 1dca 8D91      		ld r24,X+
 3061 1dcc 9C91      		ld r25,X
 3062 1dce 1197      		sbiw r26,1
 3063 1dd0 8734      		cpi r24,71
 3064 1dd2 9105      		cpc r25,__zero_reg__
 3065 1dd4 04F0      		brlt .L513
 3066 1dd6 F901      		movw r30,r18
 3067 1dd8 EE0F      		lsl r30
 3068 1dda FF1F      		rol r31
 3069 1ddc E050      		subi r30,lo8(-(PPM_in))
 3070 1dde F040      		sbci r31,hi8(-(PPM_in))
 3071 1de0 8081      		ld r24,Z
 3072 1de2 9181      		ldd r25,Z+1
 3073               	.L513:
 3074 1de4 8D91      		ld r24,X+
 3075 1de6 9C91      		ld r25,X
 3076 1de8 8734      		cpi r24,71
 3077 1dea 9105      		cpc r25,__zero_reg__
 3078 1dec 04F0      		brlt .L515
 3079 1dee F901      		movw r30,r18
 3080 1df0 EE0F      		lsl r30
 3081 1df2 FF1F      		rol r31
 3082 1df4 E050      		subi r30,lo8(-(PPM_in))
 3083 1df6 F040      		sbci r31,hi8(-(PPM_in))
 3084 1df8 8081      		ld r24,Z
 3085 1dfa 9181      		ldd r25,Z+1
 3086 1dfc 8734      		cpi r24,71
 3087 1dfe 9105      		cpc r25,__zero_reg__
 3088 1e00 04F0      		brlt .L515
 3089 1e02 42E0      		ldi r20,lo8(2)
 3090 1e04 00C0      		rjmp .L518
 3091               	.L515:
 3092 1e06 41E0      		ldi r20,lo8(1)
 3093               	.L518:
 3094 1e08 FB01      		movw r30,r22
 3095 1e0a EE0F      		lsl r30
 3096 1e0c FF1F      		rol r31
 3097 1e0e E050      		subi r30,lo8(-(PPM_in))
 3098 1e10 F040      		sbci r31,hi8(-(PPM_in))
 3099 1e12 8081      		ld r24,Z
 3100 1e14 9181      		ldd r25,Z+1
 3101 1e16 8634      		cpi r24,70
 3102 1e18 9105      		cpc r25,__zero_reg__
 3103 1e1a 04F4      		brge .L519
 3104 1e1c F901      		movw r30,r18
 3105 1e1e EE0F      		lsl r30
 3106 1e20 FF1F      		rol r31
 3107 1e22 E050      		subi r30,lo8(-(PPM_in))
 3108 1e24 F040      		sbci r31,hi8(-(PPM_in))
 3109 1e26 8081      		ld r24,Z
 3110 1e28 9181      		ldd r25,Z+1
 3111 1e2a 8734      		cpi r24,71
 3112 1e2c 9105      		cpc r25,__zero_reg__
 3113 1e2e 04F0      		brlt .L519
 3114 1e30 43E0      		ldi r20,lo8(3)
 3115               	.L519:
 3116 1e32 FB01      		movw r30,r22
 3117 1e34 EE0F      		lsl r30
 3118 1e36 FF1F      		rol r31
 3119 1e38 E050      		subi r30,lo8(-(PPM_in))
 3120 1e3a F040      		sbci r31,hi8(-(PPM_in))
 3121 1e3c 8081      		ld r24,Z
 3122 1e3e 9181      		ldd r25,Z+1
 3123 1e40 8A5B      		subi r24,lo8(-70)
 3124 1e42 9F4F      		sbci r25,hi8(-70)
 3125 1e44 04F4      		brge .L522
 3126 1e46 F901      		movw r30,r18
 3127 1e48 EE0F      		lsl r30
 3128 1e4a FF1F      		rol r31
 3129 1e4c E050      		subi r30,lo8(-(PPM_in))
 3130 1e4e F040      		sbci r31,hi8(-(PPM_in))
 3131 1e50 8081      		ld r24,Z
 3132 1e52 9181      		ldd r25,Z+1
 3133 1e54 8734      		cpi r24,71
 3134 1e56 9105      		cpc r25,__zero_reg__
 3135 1e58 04F0      		brlt .L522
 3136 1e5a 44E0      		ldi r20,lo8(4)
 3137               	.L522:
 3138 1e5c 660F      		lsl r22
 3139 1e5e 771F      		rol r23
 3140 1e60 6050      		subi r22,lo8(-(PPM_in))
 3141 1e62 7040      		sbci r23,hi8(-(PPM_in))
 3142 1e64 DB01      		movw r26,r22
 3143 1e66 8D91      		ld r24,X+
 3144 1e68 9C91      		ld r25,X
 3145 1e6a 8A5B      		subi r24,lo8(-70)
 3146 1e6c 9F4F      		sbci r25,hi8(-70)
 3147 1e6e 04F4      		brge .L525
 3148 1e70 220F      		lsl r18
 3149 1e72 331F      		rol r19
 3150 1e74 2050      		subi r18,lo8(-(PPM_in))
 3151 1e76 3040      		sbci r19,hi8(-(PPM_in))
 3152 1e78 F901      		movw r30,r18
 3153 1e7a 8081      		ld r24,Z
 3154 1e7c 9181      		ldd r25,Z+1
 3155 1e7e 8634      		cpi r24,70
 3156 1e80 9105      		cpc r25,__zero_reg__
 3157 1e82 04F4      		brge .L525
 3158 1e84 45E0      		ldi r20,lo8(5)
 3159               	.L525:
 3160 1e86 A0E0      		ldi r26,lo8(EEPromArray+2)
 3161 1e88 B0E0      		ldi r27,hi8(EEPromArray+2)
 3162               	/* #APP */
 3163 1e8a 042E      		mov __tmp_reg__,r20
 3164 1e8c 0E94 0000 		call __eeprom_write_byte_1F2021
 3165               	/* #NOAPP */
 3166               	.L511:
 3167 1e90 8091 0000 		lds r24,EE_Parameter+8
 3168 1e94 80FF      		sbrs r24,0
 3169 1e96 00C0      		rjmp .L528
 3170 1e98 8091 0000 		lds r24,MessLuftdruck
 3171 1e9c 9091 0000 		lds r25,(MessLuftdruck)+1
 3172 1ea0 875B      		subi r24,lo8(951)
 3173 1ea2 9340      		sbci r25,hi8(951)
 3174 1ea4 00F4      		brsh .L530
 3175 1ea6 8091 0000 		lds r24,MessLuftdruck
 3176 1eaa 9091 0000 		lds r25,(MessLuftdruck)+1
 3177 1eae 8E5E      		subi r24,lo8(750)
 3178 1eb0 9240      		sbci r25,hi8(750)
 3179 1eb2 00F4      		brsh .L528
 3180               	.L530:
 3181 1eb4 0E94 0000 		call SucheLuftruckOffset
 3182               	.L528:
 3183 1eb8 0E94 0000 		call GetActiveParamSetNumber
 3184 1ebc 47E4      		ldi r20,lo8(71)
 3185 1ebe 60E0      		ldi r22,lo8(EE_Parameter)
 3186 1ec0 70E0      		ldi r23,hi8(EE_Parameter)
 3187 1ec2 0E94 0000 		call ReadParameterSet
 3188 1ec6 0E94 0000 		call SetNeutral
 3189 1eca 00C0      		rjmp .L815
 3190               	.L506:
 3191 1ecc 8081      		ld r24,Z
 3192 1ece 9181      		ldd r25,Z+1
 3193 1ed0 855B      		subi r24,lo8(-75)
 3194 1ed2 9F4F      		sbci r25,hi8(-75)
 3195 1ed4 04F0      		brlt .+2
 3196 1ed6 00C0      		rjmp .L532
 3197 1ed8 8091 0000 		lds r24,delay_neutral.2785
 3198 1edc 8F5F      		subi r24,lo8(-(1))
 3199 1ede 8093 0000 		sts delay_neutral.2785,r24
 3200 1ee2 893C      		cpi r24,lo8(-55)
 3201 1ee4 00F4      		brsh .+2
 3202 1ee6 00C0      		rjmp .L503
 3203 1ee8 2998      		cbi 37-0x20,1
 3204 1eea 8FEF      		ldi r24,lo8(-1)
 3205 1eec 00E0      		ldi r16,lo8(EEPromArray+4)
 3206 1eee 10E0      		ldi r17,hi8(EEPromArray+4)
 3207 1ef0 D801      		movw r26,r16
 3208               	/* #APP */
 3209 1ef2 082E      		mov __tmp_reg__,r24
 3210 1ef4 0E94 0000 		call __eeprom_write_byte_1F2021
 3211               	/* #NOAPP */
 3212 1ef8 1092 0000 		sts MotorenEin,__zero_reg__
 3213 1efc 1092 0000 		sts delay_neutral.2785,__zero_reg__
 3214 1f00 1092 0000 		sts (modell_fliegt.2788)+1,__zero_reg__
 3215 1f04 1092 0000 		sts modell_fliegt.2788,__zero_reg__
 3216 1f08 0E94 0000 		call SetNeutral
 3217 1f0c 8091 0000 		lds r24,NeutralAccX
 3218 1f10 9091 0000 		lds r25,(NeutralAccX)+1
 3219 1f14 60E0      		ldi r22,lo8(256)
 3220 1f16 71E0      		ldi r23,hi8(256)
 3221 1f18 0E94 0000 		call __divmodhi4
 3222 1f1c D801      		movw r26,r16
 3223               	/* #APP */
 3224 1f1e 062E      		mov __tmp_reg__,r22
 3225 1f20 0E94 0000 		call __eeprom_write_byte_1F2021
 3226               	/* #NOAPP */
 3227 1f24 8091 0000 		lds r24,NeutralAccX
 3228 1f28 9091 0000 		lds r25,(NeutralAccX)+1
 3229 1f2c 60E0      		ldi r22,lo8(256)
 3230 1f2e 71E0      		ldi r23,hi8(256)
 3231 1f30 0E94 0000 		call __divmodhi4
 3232 1f34 0F5F      		subi r16,lo8(-(1))
 3233 1f36 1F4F      		sbci r17,hi8(-(1))
 3234 1f38 D801      		movw r26,r16
 3235               	/* #APP */
 3236 1f3a 082E      		mov __tmp_reg__,r24
 3237 1f3c 0E94 0000 		call __eeprom_write_byte_1F2021
 3238               	/* #NOAPP */
 3239 1f40 8091 0000 		lds r24,NeutralAccY
 3240 1f44 9091 0000 		lds r25,(NeutralAccY)+1
 3241 1f48 60E0      		ldi r22,lo8(256)
 3242 1f4a 71E0      		ldi r23,hi8(256)
 3243 1f4c 0E94 0000 		call __divmodhi4
 3244 1f50 0F5F      		subi r16,lo8(-(1))
 3245 1f52 1F4F      		sbci r17,hi8(-(1))
 3246 1f54 D801      		movw r26,r16
 3247               	/* #APP */
 3248 1f56 062E      		mov __tmp_reg__,r22
 3249 1f58 0E94 0000 		call __eeprom_write_byte_1F2021
 3250               	/* #NOAPP */
 3251 1f5c 8091 0000 		lds r24,NeutralAccY
 3252 1f60 9091 0000 		lds r25,(NeutralAccY)+1
 3253 1f64 60E0      		ldi r22,lo8(256)
 3254 1f66 71E0      		ldi r23,hi8(256)
 3255 1f68 0E94 0000 		call __divmodhi4
 3256 1f6c 0F5F      		subi r16,lo8(-(1))
 3257 1f6e 1F4F      		sbci r17,hi8(-(1))
 3258 1f70 D801      		movw r26,r16
 3259               	/* #APP */
 3260 1f72 082E      		mov __tmp_reg__,r24
 3261 1f74 0E94 0000 		call __eeprom_write_byte_1F2021
 3262               	/* #NOAPP */
 3263 1f78 6091 0000 		lds r22,NeutralAccZ
 3264 1f7c 7091 0000 		lds r23,(NeutralAccZ)+1
 3265 1f80 8091 0000 		lds r24,(NeutralAccZ)+2
 3266 1f84 9091 0000 		lds r25,(NeutralAccZ)+3
 3267 1f88 0E94 0000 		call __fixsfsi
 3268 1f8c DC01      		movw r26,r24
 3269 1f8e CB01      		movw r24,r22
 3270 1f90 60E0      		ldi r22,lo8(256)
 3271 1f92 71E0      		ldi r23,hi8(256)
 3272 1f94 0E94 0000 		call __divmodhi4
 3273 1f98 0F5F      		subi r16,lo8(-(1))
 3274 1f9a 1F4F      		sbci r17,hi8(-(1))
 3275 1f9c D801      		movw r26,r16
 3276               	/* #APP */
 3277 1f9e 062E      		mov __tmp_reg__,r22
 3278 1fa0 0E94 0000 		call __eeprom_write_byte_1F2021
 3279               	/* #NOAPP */
 3280 1fa4 6091 0000 		lds r22,NeutralAccZ
 3281 1fa8 7091 0000 		lds r23,(NeutralAccZ)+1
 3282 1fac 8091 0000 		lds r24,(NeutralAccZ)+2
 3283 1fb0 9091 0000 		lds r25,(NeutralAccZ)+3
 3284 1fb4 0E94 0000 		call __fixsfsi
 3285 1fb8 DC01      		movw r26,r24
 3286 1fba CB01      		movw r24,r22
 3287 1fbc 60E0      		ldi r22,lo8(256)
 3288 1fbe 71E0      		ldi r23,hi8(256)
 3289 1fc0 0E94 0000 		call __divmodhi4
 3290 1fc4 0F5F      		subi r16,lo8(-(1))
 3291 1fc6 1F4F      		sbci r17,hi8(-(1))
 3292 1fc8 D801      		movw r26,r16
 3293               	/* #APP */
 3294 1fca 082E      		mov __tmp_reg__,r24
 3295 1fcc 0E94 0000 		call __eeprom_write_byte_1F2021
 3296               	/* #NOAPP */
 3297               	.L815:
 3298 1fd0 0E94 0000 		call GetActiveParamSetNumber
 3299 1fd4 0E94 0000 		call Piep
 3300 1fd8 00C0      		rjmp .L503
 3301               	.L532:
 3302 1fda 1092 0000 		sts delay_neutral.2785,__zero_reg__
 3303               	.L503:
 3304 1fde E091 0000 		lds r30,EE_Parameter+2
 3305 1fe2 F0E0      		ldi r31,lo8(0)
 3306 1fe4 EE0F      		lsl r30
 3307 1fe6 FF1F      		rol r31
 3308 1fe8 E050      		subi r30,lo8(-(PPM_in))
 3309 1fea F040      		sbci r31,hi8(-(PPM_in))
 3310 1fec 8081      		ld r24,Z
 3311 1fee 9181      		ldd r25,Z+1
 3312 1ff0 8B5A      		subi r24,lo8(-85)
 3313 1ff2 9F4F      		sbci r25,hi8(-85)
 3314 1ff4 04F0      		brlt .+2
 3315 1ff6 00C0      		rjmp .L495
 3316 1ff8 8091 0000 		lds r24,EE_Parameter+3
 3317 1ffc 482F      		mov r20,r24
 3318 1ffe 50E0      		ldi r21,lo8(0)
 3319 2000 FA01      		movw r30,r20
 3320 2002 EE0F      		lsl r30
 3321 2004 FF1F      		rol r31
 3322 2006 E050      		subi r30,lo8(-(PPM_in))
 3323 2008 F040      		sbci r31,hi8(-(PPM_in))
 3324 200a 8081      		ld r24,Z
 3325 200c 9181      		ldd r25,Z+1
 3326 200e 855B      		subi r24,lo8(-75)
 3327 2010 9F4F      		sbci r25,hi8(-75)
 3328 2012 04F0      		brlt .+2
 3329 2014 00C0      		rjmp .L536
 3330 2016 8091 0000 		lds r24,delay_einschalten.2786
 3331 201a 8F5F      		subi r24,lo8(-(1))
 3332 201c 8093 0000 		sts delay_einschalten.2786,r24
 3333 2020 893C      		cpi r24,lo8(-55)
 3334 2022 00F4      		brsh .+2
 3335 2024 00C0      		rjmp .L538
 3336 2026 88EC      		ldi r24,lo8(-56)
 3337 2028 8093 0000 		sts delay_einschalten.2786,r24
 3338 202c 81E0      		ldi r24,lo8(1)
 3339 202e 90E0      		ldi r25,hi8(1)
 3340 2030 9093 0000 		sts (modell_fliegt.2788)+1,r25
 3341 2034 8093 0000 		sts modell_fliegt.2788,r24
 3342 2038 81E0      		ldi r24,lo8(1)
 3343 203a 8093 0000 		sts MotorenEin,r24
 3344 203e 1092 0000 		sts sollGier.2779,__zero_reg__
 3345 2042 1092 0000 		sts (sollGier.2779)+1,__zero_reg__
 3346 2046 1092 0000 		sts (sollGier.2779)+2,__zero_reg__
 3347 204a 1092 0000 		sts (sollGier.2779)+3,__zero_reg__
 3348 204e 1092 0000 		sts Mess_Integral_Gier,__zero_reg__
 3349 2052 1092 0000 		sts (Mess_Integral_Gier)+1,__zero_reg__
 3350 2056 1092 0000 		sts (Mess_Integral_Gier)+2,__zero_reg__
 3351 205a 1092 0000 		sts (Mess_Integral_Gier)+3,__zero_reg__
 3352 205e 1092 0000 		sts Mess_Integral_Gier2,__zero_reg__
 3353 2062 1092 0000 		sts (Mess_Integral_Gier2)+1,__zero_reg__
 3354 2066 1092 0000 		sts (Mess_Integral_Gier2)+2,__zero_reg__
 3355 206a 1092 0000 		sts (Mess_Integral_Gier2)+3,__zero_reg__
 3356 206e 1092 0000 		sts Mess_IntegralNick,__zero_reg__
 3357 2072 1092 0000 		sts (Mess_IntegralNick)+1,__zero_reg__
 3358 2076 1092 0000 		sts (Mess_IntegralNick)+2,__zero_reg__
 3359 207a 1092 0000 		sts (Mess_IntegralNick)+3,__zero_reg__
 3360 207e 1092 0000 		sts Mess_IntegralRoll,__zero_reg__
 3361 2082 1092 0000 		sts (Mess_IntegralRoll)+1,__zero_reg__
 3362 2086 1092 0000 		sts (Mess_IntegralRoll)+2,__zero_reg__
 3363 208a 1092 0000 		sts (Mess_IntegralRoll)+3,__zero_reg__
 3364 208e 8091 0000 		lds r24,IntegralNick
 3365 2092 9091 0000 		lds r25,(IntegralNick)+1
 3366 2096 A091 0000 		lds r26,(IntegralNick)+2
 3367 209a B091 0000 		lds r27,(IntegralNick)+3
 3368 209e 8093 0000 		sts Mess_IntegralNick2,r24
 3369 20a2 9093 0000 		sts (Mess_IntegralNick2)+1,r25
 3370 20a6 A093 0000 		sts (Mess_IntegralNick2)+2,r26
 3371 20aa B093 0000 		sts (Mess_IntegralNick2)+3,r27
 3372 20ae 8091 0000 		lds r24,IntegralRoll
 3373 20b2 9091 0000 		lds r25,(IntegralRoll)+1
 3374 20b6 A091 0000 		lds r26,(IntegralRoll)+2
 3375 20ba B091 0000 		lds r27,(IntegralRoll)+3
 3376 20be 8093 0000 		sts Mess_IntegralRoll2,r24
 3377 20c2 9093 0000 		sts (Mess_IntegralRoll2)+1,r25
 3378 20c6 A093 0000 		sts (Mess_IntegralRoll2)+2,r26
 3379 20ca B093 0000 		sts (Mess_IntegralRoll2)+3,r27
 3380 20ce 1092 0000 		sts SummeNick.2777,__zero_reg__
 3381 20d2 1092 0000 		sts (SummeNick.2777)+1,__zero_reg__
 3382 20d6 1092 0000 		sts (SummeNick.2777)+2,__zero_reg__
 3383 20da 1092 0000 		sts (SummeNick.2777)+3,__zero_reg__
 3384 20de 1092 0000 		sts SummeRoll.2778,__zero_reg__
 3385 20e2 1092 0000 		sts (SummeRoll.2778)+1,__zero_reg__
 3386 20e6 1092 0000 		sts (SummeRoll.2778)+2,__zero_reg__
 3387 20ea 1092 0000 		sts (SummeRoll.2778)+3,__zero_reg__
 3388 20ee 00C0      		rjmp .L538
 3389               	.L536:
 3390 20f0 1092 0000 		sts delay_einschalten.2786,__zero_reg__
 3391               	.L538:
 3392 20f4 440F      		lsl r20
 3393 20f6 551F      		rol r21
 3394 20f8 4050      		subi r20,lo8(-(PPM_in))
 3395 20fa 5040      		sbci r21,hi8(-(PPM_in))
 3396 20fc DA01      		movw r26,r20
 3397 20fe 8D91      		ld r24,X+
 3398 2100 9C91      		ld r25,X
 3399 2102 8C34      		cpi r24,76
 3400 2104 9105      		cpc r25,__zero_reg__
 3401 2106 04F0      		brlt .L540
 3402 2108 8091 0000 		lds r24,delay_ausschalten.2787
 3403 210c 8F5F      		subi r24,lo8(-(1))
 3404 210e 8093 0000 		sts delay_ausschalten.2787,r24
 3405 2112 893C      		cpi r24,lo8(-55)
 3406 2114 00F0      		brlo .L495
 3407 2116 1092 0000 		sts MotorenEin,__zero_reg__
 3408 211a 88EC      		ldi r24,lo8(-56)
 3409 211c 8093 0000 		sts delay_ausschalten.2787,r24
 3410 2120 1092 0000 		sts (modell_fliegt.2788)+1,__zero_reg__
 3411 2124 1092 0000 		sts modell_fliegt.2788,__zero_reg__
 3412 2128 00C0      		rjmp .L495
 3413               	.L540:
 3414 212a 1092 0000 		sts delay_ausschalten.2787,__zero_reg__
 3415               	.L495:
 3416 212e 8091 0000 		lds r24,NewPpmData
 3417 2132 8150      		subi r24,lo8(-(-1))
 3418 2134 8093 0000 		sts NewPpmData,r24
 3419 2138 8091 0000 		lds r24,NewPpmData
 3420 213c 8F3F      		cpi r24,lo8(-1)
 3421 213e 01F0      		breq .L543
 3422 2140 8091 0000 		lds r24,Notlandung
 3423 2144 8823      		tst r24
 3424 2146 01F4      		brne .+2
 3425 2148 00C0      		rjmp .L545
 3426               	.L543:
 3427 214a 0E94 0000 		call ParameterZuordnung
 3428 214e 2090 0000 		lds r2,StickNick
 3429 2152 3090 0000 		lds r3,(StickNick)+1
 3430 2156 8091 0000 		lds r24,EE_Parameter
 3431 215a E82E      		mov r14,r24
 3432 215c FF24      		clr r15
 3433 215e D701      		movw r26,r14
 3434 2160 AA0F      		lsl r26
 3435 2162 BB1F      		rol r27
 3436 2164 AD01      		movw r20,r26
 3437 2166 4050      		subi r20,lo8(-(PPM_in))
 3438 2168 5040      		sbci r21,hi8(-(PPM_in))
 3439 216a FA01      		movw r30,r20
 3440 216c 0190      		ld __tmp_reg__,Z+
 3441 216e F081      		ld r31,Z
 3442 2170 E02D      		mov r30,__tmp_reg__
 3443 2172 FCA3      		std Y+36,r31
 3444 2174 EBA3      		std Y+35,r30
 3445 2176 8091 0000 		lds r24,EE_Parameter+15
 3446 217a 482E      		mov r4,r24
 3447 217c 5524      		clr r5
 3448 217e A050      		subi r26,lo8(-(PPM_diff))
 3449 2180 B040      		sbci r27,hi8(-(PPM_diff))
 3450 2182 0D90      		ld __tmp_reg__,X+
 3451 2184 BC91      		ld r27,X
 3452 2186 A02D      		mov r26,__tmp_reg__
 3453 2188 BAA3      		std Y+34,r27
 3454 218a A9A3      		std Y+33,r26
 3455 218c 8091 0000 		lds r24,EE_Parameter+16
 3456 2190 282F      		mov r18,r24
 3457 2192 30E0      		ldi r19,lo8(0)
 3458 2194 38A3      		std Y+32,r19
 3459 2196 2F8F      		std Y+31,r18
 3460 2198 6091 0000 		lds r22,StickRoll
 3461 219c 7091 0000 		lds r23,(StickRoll)+1
 3462 21a0 7E8F      		std Y+30,r23
 3463 21a2 6D8F      		std Y+29,r22
 3464 21a4 8091 0000 		lds r24,EE_Parameter+1
 3465 21a8 082F      		mov r16,r24
 3466 21aa 10E0      		ldi r17,lo8(0)
 3467 21ac C801      		movw r24,r16
 3468 21ae 880F      		lsl r24
 3469 21b0 991F      		rol r25
 3470 21b2 DC01      		movw r26,r24
 3471 21b4 A050      		subi r26,lo8(-(PPM_in))
 3472 21b6 B040      		sbci r27,hi8(-(PPM_in))
 3473 21b8 0D90      		ld __tmp_reg__,X+
 3474 21ba BC91      		ld r27,X
 3475 21bc A02D      		mov r26,__tmp_reg__
 3476 21be BC8F      		std Y+28,r27
 3477 21c0 AB8F      		std Y+27,r26
 3478 21c2 8050      		subi r24,lo8(-(PPM_diff))
 3479 21c4 9040      		sbci r25,hi8(-(PPM_diff))
 3480 21c6 DC01      		movw r26,r24
 3481 21c8 8D91      		ld r24,X+
 3482 21ca 9C91      		ld r25,X
 3483 21cc 9A8F      		std Y+26,r25
 3484 21ce 898F      		std Y+25,r24
 3485 21d0 E091 0000 		lds r30,EE_Parameter+3
 3486 21d4 AE2F      		mov r26,r30
 3487 21d6 B0E0      		ldi r27,lo8(0)
 3488 21d8 AA0F      		lsl r26
 3489 21da BB1F      		rol r27
 3490 21dc A050      		subi r26,lo8(-(PPM_in))
 3491 21de B040      		sbci r27,hi8(-(PPM_in))
 3492 21e0 0D90      		ld __tmp_reg__,X+
 3493 21e2 BC91      		ld r27,X
 3494 21e4 A02D      		mov r26,__tmp_reg__
 3495 21e6 B88F      		std Y+24,r27
 3496 21e8 AF8B      		std Y+23,r26
 3497 21ea E091 0000 		lds r30,EE_Parameter+2
 3498 21ee F0E0      		ldi r31,lo8(0)
 3499 21f0 EE0F      		lsl r30
 3500 21f2 FF1F      		rol r31
 3501 21f4 E050      		subi r30,lo8(-(PPM_in))
 3502 21f6 F040      		sbci r31,hi8(-(PPM_in))
 3503 21f8 6080      		ld r6,Z
 3504 21fa 7180      		ldd r7,Z+1
 3505 21fc E8E7      		ldi r30,lo8(120)
 3506 21fe F0E0      		ldi r31,hi8(120)
 3507 2200 6E0E      		add r6,r30
 3508 2202 7F1E      		adc r7,r31
 3509 2204 7092 0000 		sts (StickGas)+1,r7
 3510 2208 6092 0000 		sts StickGas,r6
 3511 220c DA01      		movw r26,r20
 3512 220e 8D91      		ld r24,X+
 3513 2210 9C91      		ld r25,X
 3514 2212 2091 0000 		lds r18,MaxStickNick
 3515 2216 3091 0000 		lds r19,(MaxStickNick)+1
 3516 221a 97FF      		sbrs r25,7
 3517 221c 00C0      		rjmp .L547
 3518 221e 9095      		com r25
 3519 2220 8195      		neg r24
 3520 2222 9F4F      		sbci r25,lo8(-1)
 3521               	.L547:
 3522 2224 2817      		cp r18,r24
 3523 2226 3907      		cpc r19,r25
 3524 2228 04F4      		brge .L546
 3525 222a FA01      		movw r30,r20
 3526 222c 8081      		ld r24,Z
 3527 222e 9181      		ldd r25,Z+1
 3528 2230 9093 0000 		sts (MaxStickNick)+1,r25
 3529 2234 8093 0000 		sts MaxStickNick,r24
 3530 2238 97FF      		sbrs r25,7
 3531 223a 00C0      		rjmp .L550
 3532 223c 9095      		com r25
 3533 223e 8195      		neg r24
 3534 2240 9F4F      		sbci r25,lo8(-1)
 3535 2242 9093 0000 		sts (MaxStickNick)+1,r25
 3536 2246 8093 0000 		sts MaxStickNick,r24
 3537 224a 00C0      		rjmp .L550
 3538               	.L546:
 3539 224c 2150      		subi r18,lo8(-(-1))
 3540 224e 3040      		sbci r19,hi8(-(-1))
 3541 2250 3093 0000 		sts (MaxStickNick)+1,r19
 3542 2254 2093 0000 		sts MaxStickNick,r18
 3543               	.L550:
 3544 2258 F801      		movw r30,r16
 3545 225a EE0F      		lsl r30
 3546 225c FF1F      		rol r31
 3547 225e E050      		subi r30,lo8(-(PPM_in))
 3548 2260 F040      		sbci r31,hi8(-(PPM_in))
 3549 2262 8081      		ld r24,Z
 3550 2264 9181      		ldd r25,Z+1
 3551 2266 2091 0000 		lds r18,MaxStickRoll
 3552 226a 3091 0000 		lds r19,(MaxStickRoll)+1
 3553 226e 97FF      		sbrs r25,7
 3554 2270 00C0      		rjmp .L552
 3555 2272 9095      		com r25
 3556 2274 8195      		neg r24
 3557 2276 9F4F      		sbci r25,lo8(-1)
 3558               	.L552:
 3559 2278 2817      		cp r18,r24
 3560 227a 3907      		cpc r19,r25
 3561 227c 04F4      		brge .L551
 3562 227e 8081      		ld r24,Z
 3563 2280 9181      		ldd r25,Z+1
 3564 2282 9093 0000 		sts (MaxStickRoll)+1,r25
 3565 2286 8093 0000 		sts MaxStickRoll,r24
 3566 228a 97FF      		sbrs r25,7
 3567 228c 00C0      		rjmp .L555
 3568 228e 9095      		com r25
 3569 2290 8195      		neg r24
 3570 2292 9F4F      		sbci r25,lo8(-1)
 3571 2294 9093 0000 		sts (MaxStickRoll)+1,r25
 3572 2298 8093 0000 		sts MaxStickRoll,r24
 3573 229c 00C0      		rjmp .L555
 3574               	.L551:
 3575 229e 2150      		subi r18,lo8(-(-1))
 3576 22a0 3040      		sbci r19,hi8(-(-1))
 3577 22a2 3093 0000 		sts (MaxStickRoll)+1,r19
 3578 22a6 2093 0000 		sts MaxStickRoll,r18
 3579               	.L555:
 3580 22aa 8091 0000 		lds r24,Notlandung
 3581 22ae 8823      		tst r24
 3582 22b0 01F0      		breq .L556
 3583 22b2 1092 0000 		sts (MaxStickNick)+1,__zero_reg__
 3584 22b6 1092 0000 		sts MaxStickNick,__zero_reg__
 3585 22ba 1092 0000 		sts (MaxStickRoll)+1,__zero_reg__
 3586 22be 1092 0000 		sts MaxStickRoll,__zero_reg__
 3587               	.L556:
 3588 22c2 6091 0000 		lds r22,Parameter_Gyro_P
 3589 22c6 70E0      		ldi r23,lo8(0)
 3590 22c8 80E0      		ldi r24,lo8(0)
 3591 22ca 90E0      		ldi r25,hi8(0)
 3592 22cc 0E94 0000 		call __floatunsisf
 3593 22d0 20E0      		ldi r18,lo8(0x41200000)
 3594 22d2 30E0      		ldi r19,hi8(0x41200000)
 3595 22d4 40E2      		ldi r20,hlo8(0x41200000)
 3596 22d6 51E4      		ldi r21,hhi8(0x41200000)
 3597 22d8 0E94 0000 		call __addsf3
 3598 22dc 20E0      		ldi r18,lo8(0x3b800000)
 3599 22de 30E0      		ldi r19,hi8(0x3b800000)
 3600 22e0 40E8      		ldi r20,hlo8(0x3b800000)
 3601 22e2 5BE3      		ldi r21,hhi8(0x3b800000)
 3602 22e4 0E94 0000 		call __mulsf3
 3603 22e8 5B01      		movw r10,r22
 3604 22ea 6C01      		movw r12,r24
 3605 22ec 6093 0000 		sts GyroFaktor,r22
 3606 22f0 7093 0000 		sts (GyroFaktor)+1,r23
 3607 22f4 8093 0000 		sts (GyroFaktor)+2,r24
 3608 22f8 9093 0000 		sts (GyroFaktor)+3,r25
 3609 22fc 6091 0000 		lds r22,Parameter_Gyro_I
 3610 2300 70E0      		ldi r23,lo8(0)
 3611 2302 80E0      		ldi r24,lo8(0)
 3612 2304 90E0      		ldi r25,hi8(0)
 3613 2306 0E94 0000 		call __floatunsisf
 3614 230a 20E0      		ldi r18,lo8(0x472be000)
 3615 230c 30EE      		ldi r19,hi8(0x472be000)
 3616 230e 4BE2      		ldi r20,hlo8(0x472be000)
 3617 2310 57E4      		ldi r21,hhi8(0x472be000)
 3618 2312 0E94 0000 		call __divsf3
 3619 2316 6093 0000 		sts IntegralFaktor,r22
 3620 231a 7093 0000 		sts (IntegralFaktor)+1,r23
 3621 231e 8093 0000 		sts (IntegralFaktor)+2,r24
 3622 2322 9093 0000 		sts (IntegralFaktor)+3,r25
 3623 2326 2091 0000 		lds r18,DubWiseKeys+1
 3624 232a 2223      		tst r18
 3625 232c 01F0      		breq .L558
 3626 232e 8AE0      		ldi r24,lo8(10)
 3627 2330 90E0      		ldi r25,hi8(10)
 3628 2332 9093 0000 		sts (beeptime)+1,r25
 3629 2336 8093 0000 		sts beeptime,r24
 3630               	.L558:
 3631 233a E22F      		mov r30,r18
 3632 233c 22FF      		sbrs r18,2
 3633 233e 00C0      		rjmp .L560
 3634 2340 8091 0000 		lds r24,Parameter_UserParam1
 3635 2344 482F      		mov r20,r24
 3636 2346 50E0      		ldi r21,lo8(0)
 3637 2348 440F      		lsl r20
 3638 234a 551F      		rol r21
 3639 234c 440F      		lsl r20
 3640 234e 551F      		rol r21
 3641 2350 00C0      		rjmp .L562
 3642               	.L560:
 3643 2352 23FD      		sbrc r18,3
 3644 2354 00C0      		rjmp .L563
 3645 2356 40E0      		ldi r20,lo8(0)
 3646 2358 50E0      		ldi r21,hi8(0)
 3647 235a 00C0      		rjmp .L562
 3648               	.L563:
 3649 235c 8091 0000 		lds r24,Parameter_UserParam1
 3650 2360 90E0      		ldi r25,lo8(0)
 3651 2362 880F      		lsl r24
 3652 2364 991F      		rol r25
 3653 2366 880F      		lsl r24
 3654 2368 991F      		rol r25
 3655 236a 4427      		clr r20
 3656 236c 5527      		clr r21
 3657 236e 481B      		sub r20,r24
 3658 2370 590B      		sbc r21,r25
 3659               	.L562:
 3660 2372 2091 0000 		lds r18,ExternStickNick
 3661 2376 3091 0000 		lds r19,(ExternStickNick)+1
 3662 237a C901      		movw r24,r18
 3663 237c F3E0      		ldi r31,3
 3664 237e 880F      	1:	lsl r24
 3665 2380 991F      		rol r25
 3666 2382 FA95      		dec r31
 3667 2384 01F4      		brne 1b
 3668 2386 821B      		sub r24,r18
 3669 2388 930B      		sbc r25,r19
 3670 238a 840F      		add r24,r20
 3671 238c 951F      		adc r25,r21
 3672 238e 68E0      		ldi r22,lo8(8)
 3673 2390 70E0      		ldi r23,hi8(8)
 3674 2392 0E94 0000 		call __divmodhi4
 3675 2396 4B01      		movw r8,r22
 3676 2398 7093 0000 		sts (ExternStickNick)+1,r23
 3677 239c 6093 0000 		sts ExternStickNick,r22
 3678 23a0 E4FF      		sbrs r30,4
 3679 23a2 00C0      		rjmp .L565
 3680 23a4 8091 0000 		lds r24,Parameter_UserParam1
 3681 23a8 482F      		mov r20,r24
 3682 23aa 50E0      		ldi r21,lo8(0)
 3683 23ac 440F      		lsl r20
 3684 23ae 551F      		rol r21
 3685 23b0 440F      		lsl r20
 3686 23b2 551F      		rol r21
 3687 23b4 00C0      		rjmp .L567
 3688               	.L565:
 3689 23b6 E5FD      		sbrc r30,5
 3690 23b8 00C0      		rjmp .L568
 3691 23ba 40E0      		ldi r20,lo8(0)
 3692 23bc 50E0      		ldi r21,hi8(0)
 3693 23be 00C0      		rjmp .L567
 3694               	.L568:
 3695 23c0 8091 0000 		lds r24,Parameter_UserParam1
 3696 23c4 90E0      		ldi r25,lo8(0)
 3697 23c6 880F      		lsl r24
 3698 23c8 991F      		rol r25
 3699 23ca 880F      		lsl r24
 3700 23cc 991F      		rol r25
 3701 23ce 4427      		clr r20
 3702 23d0 5527      		clr r21
 3703 23d2 481B      		sub r20,r24
 3704 23d4 590B      		sbc r21,r25
 3705               	.L567:
 3706 23d6 8091 0000 		lds r24,ExternStickRoll
 3707 23da 9091 0000 		lds r25,(ExternStickRoll)+1
 3708 23de 9C01      		movw r18,r24
 3709 23e0 63E0      		ldi r22,3
 3710 23e2 220F      	1:	lsl r18
 3711 23e4 331F      		rol r19
 3712 23e6 6A95      		dec r22
 3713 23e8 01F4      		brne 1b
 3714 23ea 281B      		sub r18,r24
 3715 23ec 390B      		sbc r19,r25
 3716 23ee CA01      		movw r24,r20
 3717 23f0 820F      		add r24,r18
 3718 23f2 931F      		adc r25,r19
 3719 23f4 68E0      		ldi r22,lo8(8)
 3720 23f6 70E0      		ldi r23,hi8(8)
 3721 23f8 0E94 0000 		call __divmodhi4
 3722 23fc 7EA3      		std Y+38,r23
 3723 23fe 6DA3      		std Y+37,r22
 3724 2400 7093 0000 		sts (ExternStickRoll)+1,r23
 3725 2404 6093 0000 		sts ExternStickRoll,r22
 3726 2408 8091 0000 		lds r24,DubWiseKeys
 3727 240c 282F      		mov r18,r24
 3728 240e 83FF      		sbrs r24,3
 3729 2410 00C0      		rjmp .L570
 3730 2412 82E3      		ldi r24,lo8(50)
 3731 2414 90E0      		ldi r25,hi8(50)
 3732 2416 00C0      		rjmp .L816
 3733               	.L570:
 3734 2418 82FF      		sbrs r24,2
 3735 241a 00C0      		rjmp .L573
 3736 241c 8EEC      		ldi r24,lo8(-50)
 3737 241e 9FEF      		ldi r25,hi8(-50)
 3738               	.L816:
 3739 2420 9093 0000 		sts (ExternStickGier)+1,r25
 3740 2424 8093 0000 		sts ExternStickGier,r24
 3741 2428 00C0      		rjmp .L572
 3742               	.L573:
 3743 242a 1092 0000 		sts (ExternStickGier)+1,__zero_reg__
 3744 242e 1092 0000 		sts ExternStickGier,__zero_reg__
 3745               	.L572:
 3746 2432 21FF      		sbrs r18,1
 3747 2434 00C0      		rjmp .L575
 3748 2436 8091 0000 		lds r24,ExternHoehenValue
 3749 243a 9091 0000 		lds r25,(ExternHoehenValue)+1
 3750 243e 0196      		adiw r24,1
 3751 2440 9093 0000 		sts (ExternHoehenValue)+1,r25
 3752 2444 8093 0000 		sts ExternHoehenValue,r24
 3753               	.L575:
 3754 2448 24FF      		sbrs r18,4
 3755 244a 00C0      		rjmp .L577
 3756 244c 8091 0000 		lds r24,ExternHoehenValue
 3757 2450 9091 0000 		lds r25,(ExternHoehenValue)+1
 3758 2454 0197      		sbiw r24,1
 3759 2456 9093 0000 		sts (ExternHoehenValue)+1,r25
 3760 245a 8093 0000 		sts ExternHoehenValue,r24
 3761               	.L577:
 3762 245e 2BA1      		ldd r18,Y+35
 3763 2460 3CA1      		ldd r19,Y+36
 3764 2462 249D      		mul r18,r4
 3765 2464 C001      		movw r24,r0
 3766 2466 259D      		mul r18,r5
 3767 2468 900D      		add r25,r0
 3768 246a 349D      		mul r19,r4
 3769 246c 900D      		add r25,r0
 3770 246e 1124      		clr r1
 3771 2470 9101      		movw r18,r2
 3772 2472 220F      		lsl r18
 3773 2474 331F      		rol r19
 3774 2476 220D      		add r18,r2
 3775 2478 331D      		adc r19,r3
 3776 247a 820F      		add r24,r18
 3777 247c 931F      		adc r25,r19
 3778 247e 64E0      		ldi r22,lo8(4)
 3779 2480 70E0      		ldi r23,hi8(4)
 3780 2482 0E94 0000 		call __divmodhi4
 3781 2486 1B01      		movw r2,r22
 3782 2488 49A1      		ldd r20,Y+33
 3783 248a 5AA1      		ldd r21,Y+34
 3784 248c 6F8D      		ldd r22,Y+31
 3785 248e 78A1      		ldd r23,Y+32
 3786 2490 469F      		mul r20,r22
 3787 2492 C001      		movw r24,r0
 3788 2494 479F      		mul r20,r23
 3789 2496 900D      		add r25,r0
 3790 2498 569F      		mul r21,r22
 3791 249a 900D      		add r25,r0
 3792 249c 1124      		clr r1
 3793 249e 280E      		add r2,r24
 3794 24a0 391E      		adc r3,r25
 3795 24a2 C401      		movw r24,r8
 3796 24a4 68E0      		ldi r22,lo8(8)
 3797 24a6 70E0      		ldi r23,hi8(8)
 3798 24a8 0E94 0000 		call __divmodhi4
 3799 24ac 260E      		add r2,r22
 3800 24ae 371E      		adc r3,r23
 3801 24b0 3092 0000 		sts (StickNick)+1,r3
 3802 24b4 2092 0000 		sts StickNick,r2
 3803 24b8 AB8D      		ldd r26,Y+27
 3804 24ba BC8D      		ldd r27,Y+28
 3805 24bc A49D      		mul r26,r4
 3806 24be C001      		movw r24,r0
 3807 24c0 A59D      		mul r26,r5
 3808 24c2 900D      		add r25,r0
 3809 24c4 B49D      		mul r27,r4
 3810 24c6 900D      		add r25,r0
 3811 24c8 1124      		clr r1
 3812 24ca 2D8D      		ldd r18,Y+29
 3813 24cc 3E8D      		ldd r19,Y+30
 3814 24ce 220F      		lsl r18
 3815 24d0 331F      		rol r19
 3816 24d2 ED8D      		ldd r30,Y+29
 3817 24d4 FE8D      		ldd r31,Y+30
 3818 24d6 2E0F      		add r18,r30
 3819 24d8 3F1F      		adc r19,r31
 3820 24da 820F      		add r24,r18
 3821 24dc 931F      		adc r25,r19
 3822 24de 64E0      		ldi r22,lo8(4)
 3823 24e0 70E0      		ldi r23,hi8(4)
 3824 24e2 0E94 0000 		call __divmodhi4
 3825 24e6 9B01      		movw r18,r22
 3826 24e8 498D      		ldd r20,Y+25
 3827 24ea 5A8D      		ldd r21,Y+26
 3828 24ec 6F8D      		ldd r22,Y+31
 3829 24ee 78A1      		ldd r23,Y+32
 3830 24f0 469F      		mul r20,r22
 3831 24f2 C001      		movw r24,r0
 3832 24f4 479F      		mul r20,r23
 3833 24f6 900D      		add r25,r0
 3834 24f8 569F      		mul r21,r22
 3835 24fa 900D      		add r25,r0
 3836 24fc 1124      		clr r1
 3837 24fe 280F      		add r18,r24
 3838 2500 391F      		adc r19,r25
 3839 2502 8DA1      		ldd r24,Y+37
 3840 2504 9EA1      		ldd r25,Y+38
 3841 2506 68E0      		ldi r22,lo8(8)
 3842 2508 70E0      		ldi r23,hi8(8)
 3843 250a 0E94 0000 		call __divmodhi4
 3844 250e 260F      		add r18,r22
 3845 2510 371F      		adc r19,r23
 3846 2512 3093 0000 		sts (StickRoll)+1,r19
 3847 2516 2093 0000 		sts StickRoll,r18
 3848 251a 4091 0000 		lds r20,ExternStickGier
 3849 251e 5091 0000 		lds r21,(ExternStickGier)+1
 3850 2522 8F89      		ldd r24,Y+23
 3851 2524 988D      		ldd r25,Y+24
 3852 2526 481B      		sub r20,r24
 3853 2528 590B      		sbc r21,r25
 3854 252a 5093 0000 		sts (StickGier)+1,r21
 3855 252e 4093 0000 		sts StickGier,r20
 3856 2532 8091 0000 		lds r24,ExternControl+10
 3857 2536 80FF      		sbrs r24,0
 3858 2538 00C0      		rjmp .L579
 3859 253a 8091 0000 		lds r24,Parameter_UserParam1
 3860 253e 8138      		cpi r24,lo8(-127)
 3861 2540 00F4      		brsh .+2
 3862 2542 00C0      		rjmp .L579
 3863 2544 8091 0000 		lds r24,ExternControl+3
 3864 2548 9927      		clr r25
 3865 254a 87FD      		sbrc r24,7
 3866 254c 9095      		com r25
 3867 254e DC01      		movw r26,r24
 3868 2550 A49D      		mul r26,r4
 3869 2552 C001      		movw r24,r0
 3870 2554 A59D      		mul r26,r5
 3871 2556 900D      		add r25,r0
 3872 2558 B49D      		mul r27,r4
 3873 255a 900D      		add r25,r0
 3874 255c 1124      		clr r1
 3875 255e 280E      		add r2,r24
 3876 2560 391E      		adc r3,r25
 3877 2562 3092 0000 		sts (StickNick)+1,r3
 3878 2566 2092 0000 		sts StickNick,r2
 3879 256a 8091 0000 		lds r24,ExternControl+4
 3880 256e 9927      		clr r25
 3881 2570 87FD      		sbrc r24,7
 3882 2572 9095      		com r25
 3883 2574 FC01      		movw r30,r24
 3884 2576 E49D      		mul r30,r4
 3885 2578 C001      		movw r24,r0
 3886 257a E59D      		mul r30,r5
 3887 257c 900D      		add r25,r0
 3888 257e F49D      		mul r31,r4
 3889 2580 900D      		add r25,r0
 3890 2582 1124      		clr r1
 3891 2584 280F      		add r18,r24
 3892 2586 391F      		adc r19,r25
 3893 2588 3093 0000 		sts (StickRoll)+1,r19
 3894 258c 2093 0000 		sts StickRoll,r18
 3895 2590 8091 0000 		lds r24,ExternControl+5
 3896 2594 9927      		clr r25
 3897 2596 87FD      		sbrc r24,7
 3898 2598 9095      		com r25
 3899 259a 480F      		add r20,r24
 3900 259c 591F      		adc r21,r25
 3901 259e 5093 0000 		sts (StickGier)+1,r21
 3902 25a2 4093 0000 		sts StickGier,r20
 3903 25a6 2091 0000 		lds r18,EE_Parameter+13
 3904 25aa 30E0      		ldi r19,lo8(0)
 3905 25ac 8091 0000 		lds r24,ExternControl+7
 3906 25b0 9927      		clr r25
 3907 25b2 87FD      		sbrc r24,7
 3908 25b4 9095      		com r25
 3909 25b6 AC01      		movw r20,r24
 3910 25b8 249F      		mul r18,r20
 3911 25ba C001      		movw r24,r0
 3912 25bc 259F      		mul r18,r21
 3913 25be 900D      		add r25,r0
 3914 25c0 349F      		mul r19,r20
 3915 25c2 900D      		add r25,r0
 3916 25c4 1124      		clr r1
 3917 25c6 9093 0000 		sts (ExternHoehenValue)+1,r25
 3918 25ca 8093 0000 		sts ExternHoehenValue,r24
 3919 25ce 8091 0000 		lds r24,ExternControl+6
 3920 25d2 90E0      		ldi r25,lo8(0)
 3921 25d4 8615      		cp r24,r6
 3922 25d6 9705      		cpc r25,r7
 3923 25d8 04F4      		brge .L579
 3924 25da 9093 0000 		sts (StickGas)+1,r25
 3925 25de 8093 0000 		sts StickGas,r24
 3926               	.L579:
 3927 25e2 8091 0000 		lds r24,EE_Parameter+8
 3928 25e6 82FF      		sbrs r24,2
 3929 25e8 00C0      		rjmp .L583
 3930 25ea 80E0      		ldi r24,lo8(0x0)
 3931 25ec 90E0      		ldi r25,hi8(0x0)
 3932 25ee A0E0      		ldi r26,hlo8(0x0)
 3933 25f0 B0E0      		ldi r27,hhi8(0x0)
 3934 25f2 8093 0000 		sts IntegralFaktor,r24
 3935 25f6 9093 0000 		sts (IntegralFaktor)+1,r25
 3936 25fa A093 0000 		sts (IntegralFaktor)+2,r26
 3937 25fe B093 0000 		sts (IntegralFaktor)+3,r27
 3938               	.L583:
 3939 2602 20E0      		ldi r18,lo8(0x0)
 3940 2604 30E0      		ldi r19,hi8(0x0)
 3941 2606 40E0      		ldi r20,hlo8(0x0)
 3942 2608 50E0      		ldi r21,hhi8(0x0)
 3943 260a C601      		movw r24,r12
 3944 260c B501      		movw r22,r10
 3945 260e 0E94 0000 		call __ltsf2
 3946 2612 8823      		tst r24
 3947 2614 04F4      		brge .L585
 3948 2616 80E0      		ldi r24,lo8(0x0)
 3949 2618 90E0      		ldi r25,hi8(0x0)
 3950 261a A0E0      		ldi r26,hlo8(0x0)
 3951 261c B0E0      		ldi r27,hhi8(0x0)
 3952 261e 8093 0000 		sts GyroFaktor,r24
 3953 2622 9093 0000 		sts (GyroFaktor)+1,r25
 3954 2626 A093 0000 		sts (GyroFaktor)+2,r26
 3955 262a B093 0000 		sts (GyroFaktor)+3,r27
 3956               	.L585:
 3957 262e 20E0      		ldi r18,lo8(0x0)
 3958 2630 30E0      		ldi r19,hi8(0x0)
 3959 2632 40E0      		ldi r20,hlo8(0x0)
 3960 2634 50E0      		ldi r21,hhi8(0x0)
 3961 2636 6091 0000 		lds r22,IntegralFaktor
 3962 263a 7091 0000 		lds r23,(IntegralFaktor)+1
 3963 263e 8091 0000 		lds r24,(IntegralFaktor)+2
 3964 2642 9091 0000 		lds r25,(IntegralFaktor)+3
 3965 2646 0E94 0000 		call __ltsf2
 3966 264a 8823      		tst r24
 3967 264c 04F4      		brge .L588
 3968 264e 80E0      		ldi r24,lo8(0x0)
 3969 2650 90E0      		ldi r25,hi8(0x0)
 3970 2652 A0E0      		ldi r26,hlo8(0x0)
 3971 2654 B0E0      		ldi r27,hhi8(0x0)
 3972 2656 8093 0000 		sts IntegralFaktor,r24
 3973 265a 9093 0000 		sts (IntegralFaktor)+1,r25
 3974 265e A093 0000 		sts (IntegralFaktor)+2,r26
 3975 2662 B093 0000 		sts (IntegralFaktor)+3,r27
 3976               	.L588:
 3977 2666 F801      		movw r30,r16
 3978 2668 EE0F      		lsl r30
 3979 266a FF1F      		rol r31
 3980 266c E050      		subi r30,lo8(-(PPM_in))
 3981 266e F040      		sbci r31,hi8(-(PPM_in))
 3982 2670 2081      		ld r18,Z
 3983 2672 3181      		ldd r19,Z+1
 3984 2674 8091 0000 		lds r24,EE_Parameter+39
 3985 2678 482F      		mov r20,r24
 3986 267a 50E0      		ldi r21,lo8(0)
 3987 267c 4217      		cp r20,r18
 3988 267e 5307      		cpc r21,r19
 3989 2680 04F4      		brge .L591
 3990 2682 8091 0000 		lds r24,EE_Parameter+52
 3991 2686 82FF      		sbrs r24,2
 3992 2688 00C0      		rjmp .L591
 3993 268a 81E0      		ldi r24,lo8(1)
 3994 268c 8093 0000 		sts Looping_Links,r24
 3995 2690 00C0      		rjmp .L594
 3996               	.L591:
 3997 2692 F801      		movw r30,r16
 3998 2694 EE0F      		lsl r30
 3999 2696 FF1F      		rol r31
 4000 2698 E050      		subi r30,lo8(-(PPM_in))
 4001 269a F040      		sbci r31,hi8(-(PPM_in))
 4002 269c 2081      		ld r18,Z
 4003 269e 3181      		ldd r19,Z+1
 4004 26a0 8091 0000 		lds r24,EE_Parameter+40
 4005 26a4 BA01      		movw r22,r20
 4006 26a6 681B      		sub r22,r24
 4007 26a8 7109      		sbc r23,__zero_reg__
 4008 26aa 2617      		cp r18,r22
 4009 26ac 3707      		cpc r19,r23
 4010 26ae 04F4      		brge .L594
 4011 26b0 1092 0000 		sts Looping_Links,__zero_reg__
 4012               	.L594:
 4013 26b4 F801      		movw r30,r16
 4014 26b6 EE0F      		lsl r30
 4015 26b8 FF1F      		rol r31
 4016 26ba E050      		subi r30,lo8(-(PPM_in))
 4017 26bc F040      		sbci r31,hi8(-(PPM_in))
 4018 26be 8081      		ld r24,Z
 4019 26c0 9181      		ldd r25,Z+1
 4020 26c2 6627      		clr r22
 4021 26c4 7727      		clr r23
 4022 26c6 641B      		sub r22,r20
 4023 26c8 750B      		sbc r23,r21
 4024 26ca 8617      		cp r24,r22
 4025 26cc 9707      		cpc r25,r23
 4026 26ce 04F4      		brge .L596
 4027 26d0 8091 0000 		lds r24,EE_Parameter+52
 4028 26d4 83FF      		sbrs r24,3
 4029 26d6 00C0      		rjmp .L596
 4030 26d8 81E0      		ldi r24,lo8(1)
 4031 26da 8093 0000 		sts Looping_Rechts,r24
 4032 26de 00C0      		rjmp .L599
 4033               	.L596:
 4034 26e0 8091 0000 		lds r24,Looping_Rechts
 4035 26e4 8823      		tst r24
 4036 26e6 01F0      		breq .L599
 4037 26e8 000F      		lsl r16
 4038 26ea 111F      		rol r17
 4039 26ec 0050      		subi r16,lo8(-(PPM_in))
 4040 26ee 1040      		sbci r17,hi8(-(PPM_in))
 4041 26f0 D801      		movw r26,r16
 4042 26f2 2D91      		ld r18,X+
 4043 26f4 3C91      		ld r19,X
 4044 26f6 8091 0000 		lds r24,EE_Parameter+40
 4045 26fa 90E0      		ldi r25,lo8(0)
 4046 26fc 841B      		sub r24,r20
 4047 26fe 950B      		sbc r25,r21
 4048 2700 8217      		cp r24,r18
 4049 2702 9307      		cpc r25,r19
 4050 2704 04F4      		brge .L599
 4051 2706 1092 0000 		sts Looping_Rechts,__zero_reg__
 4052               	.L599:
 4053 270a F701      		movw r30,r14
 4054 270c EE0F      		lsl r30
 4055 270e FF1F      		rol r31
 4056 2710 E050      		subi r30,lo8(-(PPM_in))
 4057 2712 F040      		sbci r31,hi8(-(PPM_in))
 4058 2714 8081      		ld r24,Z
 4059 2716 9181      		ldd r25,Z+1
 4060 2718 4817      		cp r20,r24
 4061 271a 5907      		cpc r21,r25
 4062 271c 04F4      		brge .L602
 4063 271e 8091 0000 		lds r24,EE_Parameter+52
 4064 2722 80FF      		sbrs r24,0
 4065 2724 00C0      		rjmp .L602
 4066 2726 81E0      		ldi r24,lo8(1)
 4067 2728 8093 0000 		sts Looping_Oben,r24
 4068 272c 00C0      		rjmp .L605
 4069               	.L602:
 4070 272e 8091 0000 		lds r24,Looping_Oben
 4071 2732 8823      		tst r24
 4072 2734 01F0      		breq .L605
 4073 2736 F701      		movw r30,r14
 4074 2738 EE0F      		lsl r30
 4075 273a FF1F      		rol r31
 4076 273c E050      		subi r30,lo8(-(PPM_in))
 4077 273e F040      		sbci r31,hi8(-(PPM_in))
 4078 2740 2081      		ld r18,Z
 4079 2742 3181      		ldd r19,Z+1
 4080 2744 8091 0000 		lds r24,EE_Parameter+40
 4081 2748 FA01      		movw r30,r20
 4082 274a E81B      		sub r30,r24
 4083 274c F109      		sbc r31,__zero_reg__
 4084 274e 2E17      		cp r18,r30
 4085 2750 3F07      		cpc r19,r31
 4086 2752 04F4      		brge .L605
 4087 2754 1092 0000 		sts Looping_Oben,__zero_reg__
 4088               	.L605:
 4089 2758 F701      		movw r30,r14
 4090 275a EE0F      		lsl r30
 4091 275c FF1F      		rol r31
 4092 275e E050      		subi r30,lo8(-(PPM_in))
 4093 2760 F040      		sbci r31,hi8(-(PPM_in))
 4094 2762 8081      		ld r24,Z
 4095 2764 9181      		ldd r25,Z+1
 4096 2766 8617      		cp r24,r22
 4097 2768 9707      		cpc r25,r23
 4098 276a 04F4      		brge .L608
 4099 276c 8091 0000 		lds r24,EE_Parameter+52
 4100 2770 81FF      		sbrs r24,1
 4101 2772 00C0      		rjmp .L608
 4102 2774 81E0      		ldi r24,lo8(1)
 4103 2776 8093 0000 		sts Looping_Unten,r24
 4104 277a 00C0      		rjmp .L611
 4105               	.L608:
 4106 277c 8091 0000 		lds r24,Looping_Unten
 4107 2780 8823      		tst r24
 4108 2782 01F0      		breq .L611
 4109 2784 EE0C      		lsl r14
 4110 2786 FF1C      		rol r15
 4111 2788 20E0      		ldi r18,lo8(PPM_in)
 4112 278a 30E0      		ldi r19,hi8(PPM_in)
 4113 278c E20E      		add r14,r18
 4114 278e F31E      		adc r15,r19
 4115 2790 D701      		movw r26,r14
 4116 2792 2D91      		ld r18,X+
 4117 2794 3C91      		ld r19,X
 4118 2796 8091 0000 		lds r24,EE_Parameter+40
 4119 279a 90E0      		ldi r25,lo8(0)
 4120 279c 841B      		sub r24,r20
 4121 279e 950B      		sbc r25,r21
 4122 27a0 8217      		cp r24,r18
 4123 27a2 9307      		cpc r25,r19
 4124 27a4 04F4      		brge .L611
 4125 27a6 1092 0000 		sts Looping_Unten,__zero_reg__
 4126               	.L611:
 4127 27aa 8091 0000 		lds r24,Looping_Links
 4128 27ae 8823      		tst r24
 4129 27b0 01F4      		brne .L614
 4130 27b2 8091 0000 		lds r24,Looping_Rechts
 4131 27b6 8823      		tst r24
 4132 27b8 01F0      		breq .L616
 4133               	.L614:
 4134 27ba 81E0      		ldi r24,lo8(1)
 4135 27bc 8093 0000 		sts Looping_Roll,r24
 4136 27c0 00C0      		rjmp .L617
 4137               	.L616:
 4138 27c2 1092 0000 		sts Looping_Roll,__zero_reg__
 4139               	.L617:
 4140 27c6 8091 0000 		lds r24,Looping_Oben
 4141 27ca 8823      		tst r24
 4142 27cc 01F4      		brne .L618
 4143 27ce 8091 0000 		lds r24,Looping_Unten
 4144 27d2 8823      		tst r24
 4145 27d4 01F0      		breq .L620
 4146               	.L618:
 4147 27d6 81E0      		ldi r24,lo8(1)
 4148 27d8 8093 0000 		sts Looping_Nick,r24
 4149 27dc 1092 0000 		sts Looping_Roll,__zero_reg__
 4150 27e0 1092 0000 		sts Looping_Links,__zero_reg__
 4151 27e4 1092 0000 		sts Looping_Rechts,__zero_reg__
 4152 27e8 00C0      		rjmp .L545
 4153               	.L620:
 4154 27ea 1092 0000 		sts Looping_Nick,__zero_reg__
 4155               	.L545:
 4156 27ee 8091 0000 		lds r24,Looping_Roll
 4157 27f2 8823      		tst r24
 4158 27f4 01F0      		breq .L621
 4159 27f6 84E6      		ldi r24,lo8(100)
 4160 27f8 90E0      		ldi r25,hi8(100)
 4161 27fa 9093 0000 		sts (beeptime)+1,r25
 4162 27fe 8093 0000 		sts beeptime,r24
 4163 2802 00C0      		rjmp .L623
 4164               	.L621:
 4165 2804 8091 0000 		lds r24,Looping_Nick
 4166 2808 8823      		tst r24
 4167 280a 01F0      		breq .L624
 4168               	.L623:
 4169 280c 8091 0000 		lds r24,EE_Parameter+38
 4170 2810 90E0      		ldi r25,lo8(0)
 4171 2812 EB85      		ldd r30,Y+11
 4172 2814 FC85      		ldd r31,Y+12
 4173 2816 8E17      		cp r24,r30
 4174 2818 9F07      		cpc r25,r31
 4175 281a 04F4      		brge .L624
 4176 281c 9C87      		std Y+12,r25
 4177 281e 8B87      		std Y+11,r24
 4178               	.L624:
 4179 2820 F091 0000 		lds r31,Notlandung
 4180 2824 F983      		std Y+1,r31
 4181 2826 FF23      		tst r31
 4182 2828 01F0      		breq .L626
 4183 282a 1092 0000 		sts (StickGier)+1,__zero_reg__
 4184 282e 1092 0000 		sts StickGier,__zero_reg__
 4185 2832 1092 0000 		sts (StickNick)+1,__zero_reg__
 4186 2836 1092 0000 		sts StickNick,__zero_reg__
 4187 283a 1092 0000 		sts (StickRoll)+1,__zero_reg__
 4188 283e 1092 0000 		sts StickRoll,__zero_reg__
 4189 2842 8DEC      		ldi r24,lo8(0x3dcccccd)
 4190 2844 9CEC      		ldi r25,hi8(0x3dcccccd)
 4191 2846 ACEC      		ldi r26,hlo8(0x3dcccccd)
 4192 2848 BDE3      		ldi r27,hhi8(0x3dcccccd)
 4193 284a 8093 0000 		sts GyroFaktor,r24
 4194 284e 9093 0000 		sts (GyroFaktor)+1,r25
 4195 2852 A093 0000 		sts (GyroFaktor)+2,r26
 4196 2856 B093 0000 		sts (GyroFaktor)+3,r27
 4197 285a 8AE0      		ldi r24,lo8(0x3ba3d70a)
 4198 285c 97ED      		ldi r25,hi8(0x3ba3d70a)
 4199 285e A3EA      		ldi r26,hlo8(0x3ba3d70a)
 4200 2860 BBE3      		ldi r27,hhi8(0x3ba3d70a)
 4201 2862 8093 0000 		sts IntegralFaktor,r24
 4202 2866 9093 0000 		sts (IntegralFaktor)+1,r25
 4203 286a A093 0000 		sts (IntegralFaktor)+2,r26
 4204 286e B093 0000 		sts (IntegralFaktor)+3,r27
 4205 2872 1092 0000 		sts Looping_Roll,__zero_reg__
 4206 2876 1092 0000 		sts Looping_Nick,__zero_reg__
 4207               	.L626:
 4208 287a 2091 0000 		lds r18,MittelIntegralNick
 4209 287e 3091 0000 		lds r19,(MittelIntegralNick)+1
 4210 2882 4091 0000 		lds r20,(MittelIntegralNick)+2
 4211 2886 5091 0000 		lds r21,(MittelIntegralNick)+3
 4212 288a 8091 0000 		lds r24,IntegralNick
 4213 288e 9091 0000 		lds r25,(IntegralNick)+1
 4214 2892 A091 0000 		lds r26,(IntegralNick)+2
 4215 2896 B091 0000 		lds r27,(IntegralNick)+3
 4216 289a 820F      		add r24,r18
 4217 289c 931F      		adc r25,r19
 4218 289e A41F      		adc r26,r20
 4219 28a0 B51F      		adc r27,r21
 4220 28a2 8093 0000 		sts MittelIntegralNick,r24
 4221 28a6 9093 0000 		sts (MittelIntegralNick)+1,r25
 4222 28aa A093 0000 		sts (MittelIntegralNick)+2,r26
 4223 28ae B093 0000 		sts (MittelIntegralNick)+3,r27
 4224 28b2 2091 0000 		lds r18,MittelIntegralRoll
 4225 28b6 3091 0000 		lds r19,(MittelIntegralRoll)+1
 4226 28ba 4091 0000 		lds r20,(MittelIntegralRoll)+2
 4227 28be 5091 0000 		lds r21,(MittelIntegralRoll)+3
 4228 28c2 8091 0000 		lds r24,IntegralRoll
 4229 28c6 9091 0000 		lds r25,(IntegralRoll)+1
 4230 28ca A091 0000 		lds r26,(IntegralRoll)+2
 4231 28ce B091 0000 		lds r27,(IntegralRoll)+3
 4232 28d2 820F      		add r24,r18
 4233 28d4 931F      		adc r25,r19
 4234 28d6 A41F      		adc r26,r20
 4235 28d8 B51F      		adc r27,r21
 4236 28da 8093 0000 		sts MittelIntegralRoll,r24
 4237 28de 9093 0000 		sts (MittelIntegralRoll)+1,r25
 4238 28e2 A093 0000 		sts (MittelIntegralRoll)+2,r26
 4239 28e6 B093 0000 		sts (MittelIntegralRoll)+3,r27
 4240 28ea 2091 0000 		lds r18,MittelIntegralNick2
 4241 28ee 3091 0000 		lds r19,(MittelIntegralNick2)+1
 4242 28f2 4091 0000 		lds r20,(MittelIntegralNick2)+2
 4243 28f6 5091 0000 		lds r21,(MittelIntegralNick2)+3
 4244 28fa 8091 0000 		lds r24,IntegralNick2
 4245 28fe 9091 0000 		lds r25,(IntegralNick2)+1
 4246 2902 A091 0000 		lds r26,(IntegralNick2)+2
 4247 2906 B091 0000 		lds r27,(IntegralNick2)+3
 4248 290a 820F      		add r24,r18
 4249 290c 931F      		adc r25,r19
 4250 290e A41F      		adc r26,r20
 4251 2910 B51F      		adc r27,r21
 4252 2912 8093 0000 		sts MittelIntegralNick2,r24
 4253 2916 9093 0000 		sts (MittelIntegralNick2)+1,r25
 4254 291a A093 0000 		sts (MittelIntegralNick2)+2,r26
 4255 291e B093 0000 		sts (MittelIntegralNick2)+3,r27
 4256 2922 2091 0000 		lds r18,MittelIntegralRoll2
 4257 2926 3091 0000 		lds r19,(MittelIntegralRoll2)+1
 4258 292a 4091 0000 		lds r20,(MittelIntegralRoll2)+2
 4259 292e 5091 0000 		lds r21,(MittelIntegralRoll2)+3
 4260 2932 8091 0000 		lds r24,IntegralRoll2
 4261 2936 9091 0000 		lds r25,(IntegralRoll2)+1
 4262 293a A091 0000 		lds r26,(IntegralRoll2)+2
 4263 293e B091 0000 		lds r27,(IntegralRoll2)+3
 4264 2942 820F      		add r24,r18
 4265 2944 931F      		adc r25,r19
 4266 2946 A41F      		adc r26,r20
 4267 2948 B51F      		adc r27,r21
 4268 294a 8093 0000 		sts MittelIntegralRoll2,r24
 4269 294e 9093 0000 		sts (MittelIntegralRoll2)+1,r25
 4270 2952 A093 0000 		sts (MittelIntegralRoll2)+2,r26
 4271 2956 B093 0000 		sts (MittelIntegralRoll2)+3,r27
 4272 295a 2091 0000 		lds r18,Looping_Nick
 4273 295e 2A83      		std Y+2,r18
 4274 2960 2223      		tst r18
 4275 2962 01F4      		brne .L628
 4276 2964 8091 0000 		lds r24,Looping_Roll
 4277 2968 8823      		tst r24
 4278 296a 01F4      		brne .+2
 4279 296c 00C0      		rjmp .L630
 4280               	.L628:
 4281 296e 1092 0000 		sts IntegralAccNick,__zero_reg__
 4282 2972 1092 0000 		sts (IntegralAccNick)+1,__zero_reg__
 4283 2976 1092 0000 		sts (IntegralAccNick)+2,__zero_reg__
 4284 297a 1092 0000 		sts (IntegralAccNick)+3,__zero_reg__
 4285 297e 1092 0000 		sts IntegralAccRoll,__zero_reg__
 4286 2982 1092 0000 		sts (IntegralAccRoll)+1,__zero_reg__
 4287 2986 1092 0000 		sts (IntegralAccRoll)+2,__zero_reg__
 4288 298a 1092 0000 		sts (IntegralAccRoll)+3,__zero_reg__
 4289 298e 1092 0000 		sts MittelIntegralNick,__zero_reg__
 4290 2992 1092 0000 		sts (MittelIntegralNick)+1,__zero_reg__
 4291 2996 1092 0000 		sts (MittelIntegralNick)+2,__zero_reg__
 4292 299a 1092 0000 		sts (MittelIntegralNick)+3,__zero_reg__
 4293 299e 1092 0000 		sts MittelIntegralRoll,__zero_reg__
 4294 29a2 1092 0000 		sts (MittelIntegralRoll)+1,__zero_reg__
 4295 29a6 1092 0000 		sts (MittelIntegralRoll)+2,__zero_reg__
 4296 29aa 1092 0000 		sts (MittelIntegralRoll)+3,__zero_reg__
 4297 29ae 1092 0000 		sts MittelIntegralNick2,__zero_reg__
 4298 29b2 1092 0000 		sts (MittelIntegralNick2)+1,__zero_reg__
 4299 29b6 1092 0000 		sts (MittelIntegralNick2)+2,__zero_reg__
 4300 29ba 1092 0000 		sts (MittelIntegralNick2)+3,__zero_reg__
 4301 29be 1092 0000 		sts MittelIntegralRoll2,__zero_reg__
 4302 29c2 1092 0000 		sts (MittelIntegralRoll2)+1,__zero_reg__
 4303 29c6 1092 0000 		sts (MittelIntegralRoll2)+2,__zero_reg__
 4304 29ca 1092 0000 		sts (MittelIntegralRoll2)+3,__zero_reg__
 4305 29ce 8091 0000 		lds r24,Mess_IntegralNick
 4306 29d2 9091 0000 		lds r25,(Mess_IntegralNick)+1
 4307 29d6 A091 0000 		lds r26,(Mess_IntegralNick)+2
 4308 29da B091 0000 		lds r27,(Mess_IntegralNick)+3
 4309 29de 8093 0000 		sts Mess_IntegralNick2,r24
 4310 29e2 9093 0000 		sts (Mess_IntegralNick2)+1,r25
 4311 29e6 A093 0000 		sts (Mess_IntegralNick2)+2,r26
 4312 29ea B093 0000 		sts (Mess_IntegralNick2)+3,r27
 4313 29ee 8091 0000 		lds r24,Mess_IntegralRoll
 4314 29f2 9091 0000 		lds r25,(Mess_IntegralRoll)+1
 4315 29f6 A091 0000 		lds r26,(Mess_IntegralRoll)+2
 4316 29fa B091 0000 		lds r27,(Mess_IntegralRoll)+3
 4317 29fe 8093 0000 		sts Mess_IntegralRoll2,r24
 4318 2a02 9093 0000 		sts (Mess_IntegralRoll2)+1,r25
 4319 2a06 A093 0000 		sts (Mess_IntegralRoll2)+2,r26
 4320 2a0a B093 0000 		sts (Mess_IntegralRoll2)+3,r27
 4321 2a0e 1092 0000 		sts (ZaehlMessungen)+1,__zero_reg__
 4322 2a12 1092 0000 		sts ZaehlMessungen,__zero_reg__
 4323 2a16 1092 0000 		sts (LageKorrekturNick)+1,__zero_reg__
 4324 2a1a 1092 0000 		sts LageKorrekturNick,__zero_reg__
 4325 2a1e 1092 0000 		sts (LageKorrekturRoll)+1,__zero_reg__
 4326 2a22 1092 0000 		sts LageKorrekturRoll,__zero_reg__
 4327 2a26 3A81      		ldd r19,Y+2
 4328 2a28 3323      		tst r19
 4329 2a2a 01F0      		breq .+2
 4330 2a2c 00C0      		rjmp .L631
 4331               	.L630:
 4332 2a2e 8091 0000 		lds r24,Looping_Roll
 4333 2a32 8823      		tst r24
 4334 2a34 01F0      		breq .+2
 4335 2a36 00C0      		rjmp .L631
 4336 2a38 6091 0000 		lds r22,IntegralNick
 4337 2a3c 7091 0000 		lds r23,(IntegralNick)+1
 4338 2a40 8091 0000 		lds r24,(IntegralNick)+2
 4339 2a44 9091 0000 		lds r25,(IntegralNick)+3
 4340 2a48 A090 0000 		lds r10,EE_Parameter+20
 4341 2a4c BB24      		clr r11
 4342 2a4e CC24      		clr r12
 4343 2a50 DD24      		clr r13
 4344 2a52 E090 0000 		lds r14,Mittelwert_AccNick
 4345 2a56 F090 0000 		lds r15,(Mittelwert_AccNick)+1
 4346 2a5a A601      		movw r20,r12
 4347 2a5c 9501      		movw r18,r10
 4348 2a5e 0E94 0000 		call __divmodsi4
 4349 2a62 3901      		movw r6,r18
 4350 2a64 4A01      		movw r8,r20
 4351 2a66 0027      		clr r16
 4352 2a68 F7FC      		sbrc r15,7
 4353 2a6a 0095      		com r16
 4354 2a6c 102F      		mov r17,r16
 4355 2a6e 6E18      		sub r6,r14
 4356 2a70 7F08      		sbc r7,r15
 4357 2a72 800A      		sbc r8,r16
 4358 2a74 910A      		sbc r9,r17
 4359 2a76 6091 0000 		lds r22,IntegralRoll
 4360 2a7a 7091 0000 		lds r23,(IntegralRoll)+1
 4361 2a7e 8091 0000 		lds r24,(IntegralRoll)+2
 4362 2a82 9091 0000 		lds r25,(IntegralRoll)+3
 4363 2a86 E090 0000 		lds r14,Mittelwert_AccRoll
 4364 2a8a F090 0000 		lds r15,(Mittelwert_AccRoll)+1
 4365 2a8e A601      		movw r20,r12
 4366 2a90 9501      		movw r18,r10
 4367 2a92 0E94 0000 		call __divmodsi4
 4368 2a96 5901      		movw r10,r18
 4369 2a98 6A01      		movw r12,r20
 4370 2a9a 0027      		clr r16
 4371 2a9c F7FC      		sbrc r15,7
 4372 2a9e 0095      		com r16
 4373 2aa0 102F      		mov r17,r16
 4374 2aa2 AE18      		sub r10,r14
 4375 2aa4 BF08      		sbc r11,r15
 4376 2aa6 C00A      		sbc r12,r16
 4377 2aa8 D10A      		sbc r13,r17
 4378 2aaa C401      		movw r24,r8
 4379 2aac B301      		movw r22,r6
 4380 2aae 20E1      		ldi r18,lo8(16)
 4381 2ab0 30E0      		ldi r19,hi8(16)
 4382 2ab2 40E0      		ldi r20,hlo8(16)
 4383 2ab4 50E0      		ldi r21,hhi8(16)
 4384 2ab6 0E94 0000 		call __divmodsi4
 4385 2aba 3901      		movw r6,r18
 4386 2abc 4A01      		movw r8,r20
 4387 2abe C601      		movw r24,r12
 4388 2ac0 B501      		movw r22,r10
 4389 2ac2 20E1      		ldi r18,lo8(16)
 4390 2ac4 30E0      		ldi r19,hi8(16)
 4391 2ac6 40E0      		ldi r20,hlo8(16)
 4392 2ac8 50E0      		ldi r21,hhi8(16)
 4393 2aca 0E94 0000 		call __divmodsi4
 4394 2ace 7901      		movw r14,r18
 4395 2ad0 8A01      		movw r16,r20
 4396 2ad2 8091 0000 		lds r24,MaxStickNick
 4397 2ad6 9091 0000 		lds r25,(MaxStickNick)+1
 4398 2ada 4097      		sbiw r24,16
 4399 2adc 04F4      		brge .L633
 4400 2ade 8091 0000 		lds r24,MaxStickRoll
 4401 2ae2 9091 0000 		lds r25,(MaxStickRoll)+1
 4402 2ae6 4097      		sbiw r24,16
 4403 2ae8 04F0      		brlt .L635
 4404               	.L633:
 4405 2aea C401      		movw r24,r8
 4406 2aec B301      		movw r22,r6
 4407 2aee 23E0      		ldi r18,lo8(3)
 4408 2af0 30E0      		ldi r19,hi8(3)
 4409 2af2 40E0      		ldi r20,hlo8(3)
 4410 2af4 50E0      		ldi r21,hhi8(3)
 4411 2af6 0E94 0000 		call __divmodsi4
 4412 2afa 3901      		movw r6,r18
 4413 2afc 4A01      		movw r8,r20
 4414 2afe C801      		movw r24,r16
 4415 2b00 B701      		movw r22,r14
 4416 2b02 23E0      		ldi r18,lo8(3)
 4417 2b04 30E0      		ldi r19,hi8(3)
 4418 2b06 40E0      		ldi r20,hlo8(3)
 4419 2b08 50E0      		ldi r21,hhi8(3)
 4420 2b0a 0E94 0000 		call __divmodsi4
 4421 2b0e 7901      		movw r14,r18
 4422 2b10 8A01      		movw r16,r20
 4423               	.L635:
 4424 2b12 E091 0000 		lds r30,EE_Parameter+3
 4425 2b16 F0E0      		ldi r31,lo8(0)
 4426 2b18 EE0F      		lsl r30
 4427 2b1a FF1F      		rol r31
 4428 2b1c E050      		subi r30,lo8(-(PPM_in))
 4429 2b1e F040      		sbci r31,hi8(-(PPM_in))
 4430 2b20 0190      		ld __tmp_reg__,Z+
 4431 2b22 F081      		ld r31,Z
 4432 2b24 E02D      		mov r30,__tmp_reg__
 4433 2b26 F7FF      		sbrs r31,7
 4434 2b28 00C0      		rjmp .L637
 4435 2b2a F095      		com r31
 4436 2b2c E195      		neg r30
 4437 2b2e FF4F      		sbci r31,lo8(-1)
 4438               	.L637:
 4439 2b30 7A97      		sbiw r30,26
 4440 2b32 04F0      		brlt .L636
 4441 2b34 C401      		movw r24,r8
 4442 2b36 B301      		movw r22,r6
 4443 2b38 23E0      		ldi r18,lo8(3)
 4444 2b3a 30E0      		ldi r19,hi8(3)
 4445 2b3c 40E0      		ldi r20,hlo8(3)
 4446 2b3e 50E0      		ldi r21,hhi8(3)
 4447 2b40 0E94 0000 		call __divmodsi4
 4448 2b44 3901      		movw r6,r18
 4449 2b46 4A01      		movw r8,r20
 4450 2b48 C801      		movw r24,r16
 4451 2b4a B701      		movw r22,r14
 4452 2b4c 23E0      		ldi r18,lo8(3)
 4453 2b4e 30E0      		ldi r19,hi8(3)
 4454 2b50 40E0      		ldi r20,hlo8(3)
 4455 2b52 50E0      		ldi r21,hhi8(3)
 4456 2b54 0E94 0000 		call __divmodsi4
 4457 2b58 7901      		movw r14,r18
 4458 2b5a 8A01      		movw r16,r20
 4459               	.L636:
 4460 2b5c 41E2      		ldi r20,lo8(33)
 4461 2b5e 6416      		cp r6,r20
 4462 2b60 7104      		cpc r7,__zero_reg__
 4463 2b62 8104      		cpc r8,__zero_reg__
 4464 2b64 9104      		cpc r9,__zero_reg__
 4465 2b66 04F0      		brlt .L639
 4466 2b68 B0E2      		ldi r27,lo8(32)
 4467 2b6a 6B2E      		mov r6,r27
 4468 2b6c 712C      		mov r7,__zero_reg__
 4469 2b6e 812C      		mov r8,__zero_reg__
 4470 2b70 912C      		mov r9,__zero_reg__
 4471 2b72 00C0      		rjmp .L641
 4472               	.L639:
 4473 2b74 50EE      		ldi r21,lo8(-32)
 4474 2b76 6516      		cp r6,r21
 4475 2b78 5FEF      		ldi r21,hi8(-32)
 4476 2b7a 7506      		cpc r7,r21
 4477 2b7c 5FEF      		ldi r21,hlo8(-32)
 4478 2b7e 8506      		cpc r8,r21
 4479 2b80 5FEF      		ldi r21,hhi8(-32)
 4480 2b82 9506      		cpc r9,r21
 4481 2b84 04F4      		brge .L641
 4482 2b86 A0EE      		ldi r26,lo8(-32)
 4483 2b88 6A2E      		mov r6,r26
 4484 2b8a AFEF      		ldi r26,hi8(-32)
 4485 2b8c 7A2E      		mov r7,r26
 4486 2b8e AFEF      		ldi r26,hlo8(-32)
 4487 2b90 8A2E      		mov r8,r26
 4488 2b92 AFEF      		ldi r26,hhi8(-32)
 4489 2b94 9A2E      		mov r9,r26
 4490               	.L641:
 4491 2b96 61E2      		ldi r22,lo8(33)
 4492 2b98 E616      		cp r14,r22
 4493 2b9a F104      		cpc r15,__zero_reg__
 4494 2b9c 0105      		cpc r16,__zero_reg__
 4495 2b9e 1105      		cpc r17,__zero_reg__
 4496 2ba0 04F0      		brlt .L643
 4497 2ba2 F0E2      		ldi r31,lo8(32)
 4498 2ba4 EF2E      		mov r14,r31
 4499 2ba6 F12C      		mov r15,__zero_reg__
 4500 2ba8 012D      		mov r16,__zero_reg__
 4501 2baa 112D      		mov r17,__zero_reg__
 4502 2bac 00C0      		rjmp .L645
 4503               	.L643:
 4504 2bae 70EE      		ldi r23,lo8(-32)
 4505 2bb0 E716      		cp r14,r23
 4506 2bb2 7FEF      		ldi r23,hi8(-32)
 4507 2bb4 F706      		cpc r15,r23
 4508 2bb6 7FEF      		ldi r23,hlo8(-32)
 4509 2bb8 0707      		cpc r16,r23
 4510 2bba 7FEF      		ldi r23,hhi8(-32)
 4511 2bbc 1707      		cpc r17,r23
 4512 2bbe 04F4      		brge .L645
 4513 2bc0 E0EE      		ldi r30,lo8(-32)
 4514 2bc2 EE2E      		mov r14,r30
 4515 2bc4 EFEF      		ldi r30,hi8(-32)
 4516 2bc6 FE2E      		mov r15,r30
 4517 2bc8 EFEF      		ldi r30,hlo8(-32)
 4518 2bca 0E2F      		mov r16,r30
 4519 2bcc EFEF      		ldi r30,hhi8(-32)
 4520 2bce 1E2F      		mov r17,r30
 4521               	.L645:
 4522 2bd0 8091 0000 		lds r24,Mess_IntegralNick
 4523 2bd4 9091 0000 		lds r25,(Mess_IntegralNick)+1
 4524 2bd8 A091 0000 		lds r26,(Mess_IntegralNick)+2
 4525 2bdc B091 0000 		lds r27,(Mess_IntegralNick)+3
 4526 2be0 8619      		sub r24,r6
 4527 2be2 9709      		sbc r25,r7
 4528 2be4 A809      		sbc r26,r8
 4529 2be6 B909      		sbc r27,r9
 4530 2be8 8093 0000 		sts Mess_IntegralNick,r24
 4531 2bec 9093 0000 		sts (Mess_IntegralNick)+1,r25
 4532 2bf0 A093 0000 		sts (Mess_IntegralNick)+2,r26
 4533 2bf4 B093 0000 		sts (Mess_IntegralNick)+3,r27
 4534 2bf8 8091 0000 		lds r24,Mess_IntegralRoll
 4535 2bfc 9091 0000 		lds r25,(Mess_IntegralRoll)+1
 4536 2c00 A091 0000 		lds r26,(Mess_IntegralRoll)+2
 4537 2c04 B091 0000 		lds r27,(Mess_IntegralRoll)+3
 4538 2c08 8E19      		sub r24,r14
 4539 2c0a 9F09      		sbc r25,r15
 4540 2c0c A00B      		sbc r26,r16
 4541 2c0e B10B      		sbc r27,r17
 4542 2c10 8093 0000 		sts Mess_IntegralRoll,r24
 4543 2c14 9093 0000 		sts (Mess_IntegralRoll)+1,r25
 4544 2c18 A093 0000 		sts (Mess_IntegralRoll)+2,r26
 4545 2c1c B093 0000 		sts (Mess_IntegralRoll)+3,r27
 4546               	.L631:
 4547 2c20 8091 0000 		lds r24,ZaehlMessungen
 4548 2c24 9091 0000 		lds r25,(ZaehlMessungen)+1
 4549 2c28 8F3F      		cpi r24,255
 4550 2c2a 9105      		cpc r25,__zero_reg__
 4551 2c2c 01F0      		breq .+2
 4552 2c2e 00F4      		brsh .+2
 4553 2c30 00C0      		rjmp .L647
 4554 2c32 8A81      		ldd r24,Y+2
 4555 2c34 8823      		tst r24
 4556 2c36 01F0      		breq .+2
 4557 2c38 00C0      		rjmp .L649
 4558 2c3a 8091 0000 		lds r24,Looping_Roll
 4559 2c3e 8823      		tst r24
 4560 2c40 01F0      		breq .+2
 4561 2c42 00C0      		rjmp .L649
 4562 2c44 6091 0000 		lds r22,MittelIntegralNick
 4563 2c48 7091 0000 		lds r23,(MittelIntegralNick)+1
 4564 2c4c 8091 0000 		lds r24,(MittelIntegralNick)+2
 4565 2c50 9091 0000 		lds r25,(MittelIntegralNick)+3
 4566 2c54 20E0      		ldi r18,lo8(256)
 4567 2c56 31E0      		ldi r19,hi8(256)
 4568 2c58 40E0      		ldi r20,hlo8(256)
 4569 2c5a 50E0      		ldi r21,hhi8(256)
 4570 2c5c 0E94 0000 		call __divmodsi4
 4571 2c60 2093 0000 		sts MittelIntegralNick,r18
 4572 2c64 3093 0000 		sts (MittelIntegralNick)+1,r19
 4573 2c68 4093 0000 		sts (MittelIntegralNick)+2,r20
 4574 2c6c 5093 0000 		sts (MittelIntegralNick)+3,r21
 4575 2c70 6091 0000 		lds r22,MittelIntegralRoll
 4576 2c74 7091 0000 		lds r23,(MittelIntegralRoll)+1
 4577 2c78 8091 0000 		lds r24,(MittelIntegralRoll)+2
 4578 2c7c 9091 0000 		lds r25,(MittelIntegralRoll)+3
 4579 2c80 20E0      		ldi r18,lo8(256)
 4580 2c82 31E0      		ldi r19,hi8(256)
 4581 2c84 40E0      		ldi r20,hlo8(256)
 4582 2c86 50E0      		ldi r21,hhi8(256)
 4583 2c88 0E94 0000 		call __divmodsi4
 4584 2c8c 2093 0000 		sts MittelIntegralRoll,r18
 4585 2c90 3093 0000 		sts (MittelIntegralRoll)+1,r19
 4586 2c94 4093 0000 		sts (MittelIntegralRoll)+2,r20
 4587 2c98 5093 0000 		sts (MittelIntegralRoll)+3,r21
 4588 2c9c E090 0000 		lds r14,EE_Parameter+20
 4589 2ca0 FF24      		clr r15
 4590 2ca2 00E0      		ldi r16,lo8(0)
 4591 2ca4 10E0      		ldi r17,hi8(0)
 4592 2ca6 2091 0000 		lds r18,IntegralAccNick
 4593 2caa 3091 0000 		lds r19,(IntegralAccNick)+1
 4594 2cae 4091 0000 		lds r20,(IntegralAccNick)+2
 4595 2cb2 5091 0000 		lds r21,(IntegralAccNick)+3
 4596 2cb6 C801      		movw r24,r16
 4597 2cb8 B701      		movw r22,r14
 4598 2cba 0E94 0000 		call __mulsi3
 4599 2cbe 20E0      		ldi r18,lo8(256)
 4600 2cc0 31E0      		ldi r19,hi8(256)
 4601 2cc2 40E0      		ldi r20,hlo8(256)
 4602 2cc4 50E0      		ldi r21,hhi8(256)
 4603 2cc6 0E94 0000 		call __divmodsi4
 4604 2cca 2093 0000 		sts IntegralAccNick,r18
 4605 2cce 3093 0000 		sts (IntegralAccNick)+1,r19
 4606 2cd2 4093 0000 		sts (IntegralAccNick)+2,r20
 4607 2cd6 5093 0000 		sts (IntegralAccNick)+3,r21
 4608 2cda 2091 0000 		lds r18,IntegralAccRoll
 4609 2cde 3091 0000 		lds r19,(IntegralAccRoll)+1
 4610 2ce2 4091 0000 		lds r20,(IntegralAccRoll)+2
 4611 2ce6 5091 0000 		lds r21,(IntegralAccRoll)+3
 4612 2cea C801      		movw r24,r16
 4613 2cec B701      		movw r22,r14
 4614 2cee 0E94 0000 		call __mulsi3
 4615 2cf2 20E0      		ldi r18,lo8(256)
 4616 2cf4 31E0      		ldi r19,hi8(256)
 4617 2cf6 40E0      		ldi r20,hlo8(256)
 4618 2cf8 50E0      		ldi r21,hhi8(256)
 4619 2cfa 0E94 0000 		call __divmodsi4
 4620 2cfe 2093 0000 		sts IntegralAccRoll,r18
 4621 2d02 3093 0000 		sts (IntegralAccRoll)+1,r19
 4622 2d06 4093 0000 		sts (IntegralAccRoll)+2,r20
 4623 2d0a 5093 0000 		sts (IntegralAccRoll)+3,r21
 4624 2d0e 6091 0000 		lds r22,IntegralAccZ
 4625 2d12 7091 0000 		lds r23,(IntegralAccZ)+1
 4626 2d16 8091 0000 		lds r24,(IntegralAccZ)+2
 4627 2d1a 9091 0000 		lds r25,(IntegralAccZ)+3
 4628 2d1e 20E0      		ldi r18,lo8(256)
 4629 2d20 31E0      		ldi r19,hi8(256)
 4630 2d22 40E0      		ldi r20,hlo8(256)
 4631 2d24 50E0      		ldi r21,hhi8(256)
 4632 2d26 0E94 0000 		call __divmodsi4
 4633 2d2a 2093 0000 		sts IntegralAccZ,r18
 4634 2d2e 3093 0000 		sts (IntegralAccZ)+1,r19
 4635 2d32 4093 0000 		sts (IntegralAccZ)+2,r20
 4636 2d36 5093 0000 		sts (IntegralAccZ)+3,r21
 4637 2d3a 6091 0000 		lds r22,MittelIntegralNick
 4638 2d3e 7091 0000 		lds r23,(MittelIntegralNick)+1
 4639 2d42 8091 0000 		lds r24,(MittelIntegralNick)+2
 4640 2d46 9091 0000 		lds r25,(MittelIntegralNick)+3
 4641 2d4a 2091 0000 		lds r18,IntegralAccNick
 4642 2d4e 3091 0000 		lds r19,(IntegralAccNick)+1
 4643 2d52 4091 0000 		lds r20,(IntegralAccNick)+2
 4644 2d56 5091 0000 		lds r21,(IntegralAccNick)+3
 4645 2d5a E090 0000 		lds r14,EE_Parameter+45
 4646 2d5e FF24      		clr r15
 4647 2d60 00E0      		ldi r16,lo8(0)
 4648 2d62 10E0      		ldi r17,hi8(0)
 4649 2d64 621B      		sub r22,r18
 4650 2d66 730B      		sbc r23,r19
 4651 2d68 840B      		sbc r24,r20
 4652 2d6a 950B      		sbc r25,r21
 4653 2d6c A801      		movw r20,r16
 4654 2d6e 9701      		movw r18,r14
 4655 2d70 0E94 0000 		call __divmodsi4
 4656 2d74 5901      		movw r10,r18
 4657 2d76 6A01      		movw r12,r20
 4658 2d78 2093 0000 		sts ausgleichNick.2792,r18
 4659 2d7c 3093 0000 		sts (ausgleichNick.2792)+1,r19
 4660 2d80 4093 0000 		sts (ausgleichNick.2792)+2,r20
 4661 2d84 5093 0000 		sts (ausgleichNick.2792)+3,r21
 4662 2d88 6091 0000 		lds r22,MittelIntegralRoll
 4663 2d8c 7091 0000 		lds r23,(MittelIntegralRoll)+1
 4664 2d90 8091 0000 		lds r24,(MittelIntegralRoll)+2
 4665 2d94 9091 0000 		lds r25,(MittelIntegralRoll)+3
 4666 2d98 2091 0000 		lds r18,IntegralAccRoll
 4667 2d9c 3091 0000 		lds r19,(IntegralAccRoll)+1
 4668 2da0 4091 0000 		lds r20,(IntegralAccRoll)+2
 4669 2da4 5091 0000 		lds r21,(IntegralAccRoll)+3
 4670 2da8 621B      		sub r22,r18
 4671 2daa 730B      		sbc r23,r19
 4672 2dac 840B      		sbc r24,r20
 4673 2dae 950B      		sbc r25,r21
 4674 2db0 A801      		movw r20,r16
 4675 2db2 9701      		movw r18,r14
 4676 2db4 0E94 0000 		call __divmodsi4
 4677 2db8 1901      		movw r2,r18
 4678 2dba 2A01      		movw r4,r20
 4679 2dbc C601      		movw r24,r12
 4680 2dbe B501      		movw r22,r10
 4681 2dc0 20E0      		ldi r18,lo8(256)
 4682 2dc2 31E0      		ldi r19,hi8(256)
 4683 2dc4 40E0      		ldi r20,hlo8(256)
 4684 2dc6 50E0      		ldi r21,hhi8(256)
 4685 2dc8 0E94 0000 		call __divmodsi4
 4686 2dcc 8901      		movw r16,r18
 4687 2dce 3093 0000 		sts (LageKorrekturNick)+1,r19
 4688 2dd2 2093 0000 		sts LageKorrekturNick,r18
 4689 2dd6 C201      		movw r24,r4
 4690 2dd8 B101      		movw r22,r2
 4691 2dda 20E0      		ldi r18,lo8(256)
 4692 2ddc 31E0      		ldi r19,hi8(256)
 4693 2dde 40E0      		ldi r20,hlo8(256)
 4694 2de0 50E0      		ldi r21,hhi8(256)
 4695 2de2 0E94 0000 		call __divmodsi4
 4696 2de6 6901      		movw r12,r18
 4697 2de8 3093 0000 		sts (LageKorrekturRoll)+1,r19
 4698 2dec 2093 0000 		sts LageKorrekturRoll,r18
 4699 2df0 8091 0000 		lds r24,MaxStickNick
 4700 2df4 9091 0000 		lds r25,(MaxStickNick)+1
 4701 2df8 4097      		sbiw r24,16
 4702 2dfa 04F4      		brge .L652
 4703 2dfc 8091 0000 		lds r24,MaxStickRoll
 4704 2e00 9091 0000 		lds r25,(MaxStickRoll)+1
 4705 2e04 4097      		sbiw r24,16
 4706 2e06 04F4      		brge .L652
 4707 2e08 E091 0000 		lds r30,EE_Parameter+3
 4708 2e0c F0E0      		ldi r31,lo8(0)
 4709 2e0e EE0F      		lsl r30
 4710 2e10 FF1F      		rol r31
 4711 2e12 E050      		subi r30,lo8(-(PPM_in))
 4712 2e14 F040      		sbci r31,hi8(-(PPM_in))
 4713 2e16 0190      		ld __tmp_reg__,Z+
 4714 2e18 F081      		ld r31,Z
 4715 2e1a E02D      		mov r30,__tmp_reg__
 4716 2e1c F7FF      		sbrs r31,7
 4717 2e1e 00C0      		rjmp .L656
 4718 2e20 F095      		com r31
 4719 2e22 E195      		neg r30
 4720 2e24 FF4F      		sbci r31,lo8(-1)
 4721               	.L656:
 4722 2e26 7A97      		sbiw r30,26
 4723 2e28 04F0      		brlt .L655
 4724               	.L652:
 4725 2e2a C801      		movw r24,r16
 4726 2e2c 62E0      		ldi r22,lo8(2)
 4727 2e2e 70E0      		ldi r23,hi8(2)
 4728 2e30 0E94 0000 		call __divmodhi4
 4729 2e34 CB01      		movw r24,r22
 4730 2e36 62E0      		ldi r22,lo8(2)
 4731 2e38 70E0      		ldi r23,hi8(2)
 4732 2e3a 0E94 0000 		call __divmodhi4
 4733 2e3e 7093 0000 		sts (LageKorrekturNick)+1,r23
 4734 2e42 6093 0000 		sts LageKorrekturNick,r22
 4735               	.L655:
 4736 2e46 6091 0000 		lds r22,MittelIntegralNick2
 4737 2e4a 7091 0000 		lds r23,(MittelIntegralNick2)+1
 4738 2e4e 8091 0000 		lds r24,(MittelIntegralNick2)+2
 4739 2e52 9091 0000 		lds r25,(MittelIntegralNick2)+3
 4740 2e56 20E0      		ldi r18,lo8(256)
 4741 2e58 31E0      		ldi r19,hi8(256)
 4742 2e5a 40E0      		ldi r20,hlo8(256)
 4743 2e5c 50E0      		ldi r21,hhi8(256)
 4744 2e5e 0E94 0000 		call __divmodsi4
 4745 2e62 2093 0000 		sts MittelIntegralNick2,r18
 4746 2e66 3093 0000 		sts (MittelIntegralNick2)+1,r19
 4747 2e6a 4093 0000 		sts (MittelIntegralNick2)+2,r20
 4748 2e6e 5093 0000 		sts (MittelIntegralNick2)+3,r21
 4749 2e72 6091 0000 		lds r22,MittelIntegralRoll2
 4750 2e76 7091 0000 		lds r23,(MittelIntegralRoll2)+1
 4751 2e7a 8091 0000 		lds r24,(MittelIntegralRoll2)+2
 4752 2e7e 9091 0000 		lds r25,(MittelIntegralRoll2)+3
 4753 2e82 20E0      		ldi r18,lo8(256)
 4754 2e84 31E0      		ldi r19,hi8(256)
 4755 2e86 40E0      		ldi r20,hlo8(256)
 4756 2e88 50E0      		ldi r21,hhi8(256)
 4757 2e8a 0E94 0000 		call __divmodsi4
 4758 2e8e 2093 0000 		sts MittelIntegralRoll2,r18
 4759 2e92 3093 0000 		sts (MittelIntegralRoll2)+1,r19
 4760 2e96 4093 0000 		sts (MittelIntegralRoll2)+2,r20
 4761 2e9a 5093 0000 		sts (MittelIntegralRoll2)+3,r21
 4762 2e9e E090 0000 		lds r14,IntegralNick2
 4763 2ea2 F090 0000 		lds r15,(IntegralNick2)+1
 4764 2ea6 0091 0000 		lds r16,(IntegralNick2)+2
 4765 2eaa 1091 0000 		lds r17,(IntegralNick2)+3
 4766 2eae 8091 0000 		lds r24,IntegralNick
 4767 2eb2 9091 0000 		lds r25,(IntegralNick)+1
 4768 2eb6 A091 0000 		lds r26,(IntegralNick)+2
 4769 2eba B091 0000 		lds r27,(IntegralNick)+3
 4770 2ebe E81A      		sub r14,r24
 4771 2ec0 F90A      		sbc r15,r25
 4772 2ec2 0A0B      		sbc r16,r26
 4773 2ec4 1B0B      		sbc r17,r27
 4774 2ec6 E092 0000 		sts tmp_long.2780,r14
 4775 2eca F092 0000 		sts (tmp_long.2780)+1,r15
 4776 2ece 0093 0000 		sts (tmp_long.2780)+2,r16
 4777 2ed2 1093 0000 		sts (tmp_long.2780)+3,r17
 4778 2ed6 6090 0000 		lds r6,IntegralRoll2
 4779 2eda 7090 0000 		lds r7,(IntegralRoll2)+1
 4780 2ede 8090 0000 		lds r8,(IntegralRoll2)+2
 4781 2ee2 9090 0000 		lds r9,(IntegralRoll2)+3
 4782 2ee6 8091 0000 		lds r24,IntegralRoll
 4783 2eea 9091 0000 		lds r25,(IntegralRoll)+1
 4784 2eee A091 0000 		lds r26,(IntegralRoll)+2
 4785 2ef2 B091 0000 		lds r27,(IntegralRoll)+3
 4786 2ef6 681A      		sub r6,r24
 4787 2ef8 790A      		sbc r7,r25
 4788 2efa 8A0A      		sbc r8,r26
 4789 2efc 9B0A      		sbc r9,r27
 4790 2efe 6092 0000 		sts tmp_long2.2781,r6
 4791 2f02 7092 0000 		sts (tmp_long2.2781)+1,r7
 4792 2f06 8092 0000 		sts (tmp_long2.2781)+2,r8
 4793 2f0a 9092 0000 		sts (tmp_long2.2781)+3,r9
 4794 2f0e E092 0000 		sts IntegralFehlerNick.2782,r14
 4795 2f12 F092 0000 		sts (IntegralFehlerNick.2782)+1,r15
 4796 2f16 0093 0000 		sts (IntegralFehlerNick.2782)+2,r16
 4797 2f1a 1093 0000 		sts (IntegralFehlerNick.2782)+3,r17
 4798 2f1e 6092 0000 		sts IntegralFehlerRoll.2783,r6
 4799 2f22 7092 0000 		sts (IntegralFehlerRoll.2783)+1,r7
 4800 2f26 8092 0000 		sts (IntegralFehlerRoll.2783)+2,r8
 4801 2f2a 9092 0000 		sts (IntegralFehlerRoll.2783)+3,r9
 4802 2f2e 8091 0000 		lds r24,Mess_IntegralNick2
 4803 2f32 9091 0000 		lds r25,(Mess_IntegralNick2)+1
 4804 2f36 A091 0000 		lds r26,(Mess_IntegralNick2)+2
 4805 2f3a B091 0000 		lds r27,(Mess_IntegralNick2)+3
 4806 2f3e 8E19      		sub r24,r14
 4807 2f40 9F09      		sbc r25,r15
 4808 2f42 A00B      		sbc r26,r16
 4809 2f44 B10B      		sbc r27,r17
 4810 2f46 8093 0000 		sts Mess_IntegralNick2,r24
 4811 2f4a 9093 0000 		sts (Mess_IntegralNick2)+1,r25
 4812 2f4e A093 0000 		sts (Mess_IntegralNick2)+2,r26
 4813 2f52 B093 0000 		sts (Mess_IntegralNick2)+3,r27
 4814 2f56 8091 0000 		lds r24,Mess_IntegralRoll2
 4815 2f5a 9091 0000 		lds r25,(Mess_IntegralRoll2)+1
 4816 2f5e A091 0000 		lds r26,(Mess_IntegralRoll2)+2
 4817 2f62 B091 0000 		lds r27,(Mess_IntegralRoll2)+3
 4818 2f66 8619      		sub r24,r6
 4819 2f68 9709      		sbc r25,r7
 4820 2f6a A809      		sbc r26,r8
 4821 2f6c B909      		sbc r27,r9
 4822 2f6e 8093 0000 		sts Mess_IntegralRoll2,r24
 4823 2f72 9093 0000 		sts (Mess_IntegralRoll2)+1,r25
 4824 2f76 A093 0000 		sts (Mess_IntegralRoll2)+2,r26
 4825 2f7a B093 0000 		sts (Mess_IntegralRoll2)+3,r27
 4826 2f7e 6091 0000 		lds r22,IntegralAccNick
 4827 2f82 7091 0000 		lds r23,(IntegralAccNick)+1
 4828 2f86 8091 0000 		lds r24,(IntegralAccNick)+2
 4829 2f8a 9091 0000 		lds r25,(IntegralAccNick)+3
 4830 2f8e 2AE1      		ldi r18,lo8(26)
 4831 2f90 30E0      		ldi r19,hi8(26)
 4832 2f92 40E0      		ldi r20,hlo8(26)
 4833 2f94 50E0      		ldi r21,hhi8(26)
 4834 2f96 0E94 0000 		call __divmodsi4
 4835 2f9a 3093 0000 		sts (DebugOut+36)+1,r19
 4836 2f9e 2093 0000 		sts DebugOut+36,r18
 4837 2fa2 6091 0000 		lds r22,IntegralAccRoll
 4838 2fa6 7091 0000 		lds r23,(IntegralAccRoll)+1
 4839 2faa 8091 0000 		lds r24,(IntegralAccRoll)+2
 4840 2fae 9091 0000 		lds r25,(IntegralAccRoll)+3
 4841 2fb2 2AE1      		ldi r18,lo8(26)
 4842 2fb4 30E0      		ldi r19,hi8(26)
 4843 2fb6 40E0      		ldi r20,hlo8(26)
 4844 2fb8 50E0      		ldi r21,hhi8(26)
 4845 2fba 0E94 0000 		call __divmodsi4
 4846 2fbe 3093 0000 		sts (DebugOut+38)+1,r19
 4847 2fc2 2093 0000 		sts DebugOut+38,r18
 4848 2fc6 F092 0000 		sts (DebugOut+40)+1,r15
 4849 2fca E092 0000 		sts DebugOut+40,r14
 4850 2fce 7092 0000 		sts (DebugOut+42)+1,r7
 4851 2fd2 6092 0000 		sts DebugOut+42,r6
 4852 2fd6 6091 0000 		lds r22,MittelIntegralNick
 4853 2fda 7091 0000 		lds r23,(MittelIntegralNick)+1
 4854 2fde 8091 0000 		lds r24,(MittelIntegralNick)+2
 4855 2fe2 9091 0000 		lds r25,(MittelIntegralNick)+3
 4856 2fe6 2AE1      		ldi r18,lo8(26)
 4857 2fe8 30E0      		ldi r19,hi8(26)
 4858 2fea 40E0      		ldi r20,hlo8(26)
 4859 2fec 50E0      		ldi r21,hhi8(26)
 4860 2fee 0E94 0000 		call __divmodsi4
 4861 2ff2 3093 0000 		sts (DebugOut+44)+1,r19
 4862 2ff6 2093 0000 		sts DebugOut+44,r18
 4863 2ffa 6091 0000 		lds r22,MittelIntegralRoll
 4864 2ffe 7091 0000 		lds r23,(MittelIntegralRoll)+1
 4865 3002 8091 0000 		lds r24,(MittelIntegralRoll)+2
 4866 3006 9091 0000 		lds r25,(MittelIntegralRoll)+3
 4867 300a 2AE1      		ldi r18,lo8(26)
 4868 300c 30E0      		ldi r19,hi8(26)
 4869 300e 40E0      		ldi r20,hlo8(26)
 4870 3010 50E0      		ldi r21,hhi8(26)
 4871 3012 0E94 0000 		call __divmodsi4
 4872 3016 3093 0000 		sts (DebugOut+46)+1,r19
 4873 301a 2093 0000 		sts DebugOut+46,r18
 4874 301e 3092 0000 		sts (DebugOut+60)+1,r3
 4875 3022 2092 0000 		sts DebugOut+60,r2
 4876 3026 C601      		movw r24,r12
 4877 3028 880F      		lsl r24
 4878 302a 991F      		rol r25
 4879 302c 9601      		movw r18,r12
 4880 302e 53E0      		ldi r21,3
 4881 3030 220F      	1:	lsl r18
 4882 3032 331F      		rol r19
 4883 3034 5A95      		dec r21
 4884 3036 01F4      		brne 1b
 4885 3038 820F      		add r24,r18
 4886 303a 931F      		adc r25,r19
 4887 303c 9093 0000 		sts (DebugOut+62)+1,r25
 4888 3040 8093 0000 		sts DebugOut+62,r24
 4889 3044 81E0      		ldi r24,lo8(1)
 4890 3046 90E0      		ldi r25,hi8(1)
 4891 3048 9093 0000 		sts (cnt.2800)+1,r25
 4892 304c 8093 0000 		sts cnt.2800,r24
 4893 3050 8091 0000 		lds r24,MittelIntegralNick
 4894 3054 9091 0000 		lds r25,(MittelIntegralNick)+1
 4895 3058 A091 0000 		lds r26,(MittelIntegralNick)+2
 4896 305c B091 0000 		lds r27,(MittelIntegralNick)+3
 4897 3060 2091 0000 		lds r18,MittelIntegralNick_Alt.2805
 4898 3064 3091 0000 		lds r19,(MittelIntegralNick_Alt.2805)+1
 4899 3068 4091 0000 		lds r20,(MittelIntegralNick_Alt.2805)+2
 4900 306c 5091 0000 		lds r21,(MittelIntegralNick_Alt.2805)+3
 4901 3070 281B      		sub r18,r24
 4902 3072 390B      		sbc r19,r25
 4903 3074 4A0B      		sbc r20,r26
 4904 3076 5B0B      		sbc r21,r27
 4905 3078 57FF      		sbrs r21,7
 4906 307a 00C0      		rjmp .L658
 4907 307c 5095      		com r21
 4908 307e 4095      		com r20
 4909 3080 3095      		com r19
 4910 3082 2195      		neg r18
 4911 3084 3F4F      		sbci r19,lo8(-1)
 4912 3086 4F4F      		sbci r20,lo8(-1)
 4913 3088 5F4F      		sbci r21,lo8(-1)
 4914               	.L658:
 4915 308a 2052      		subi r18,lo8(20000)
 4916 308c 3E44      		sbci r19,hi8(20000)
 4917 308e 4040      		sbci r20,hlo8(20000)
 4918 3090 5040      		sbci r21,hhi8(20000)
 4919 3092 04F0      		brlt .+2
 4920 3094 00C0      		rjmp .L657
 4921 3096 A1E0      		ldi r26,lo8(4097)
 4922 3098 EA16      		cp r14,r26
 4923 309a A0E1      		ldi r26,hi8(4097)
 4924 309c FA06      		cpc r15,r26
 4925 309e A0E0      		ldi r26,hlo8(4097)
 4926 30a0 0A07      		cpc r16,r26
 4927 30a2 A0E0      		ldi r26,hhi8(4097)
 4928 30a4 1A07      		cpc r17,r26
 4929 30a6 04F4      		brge .+2
 4930 30a8 00C0      		rjmp .L660
 4931 30aa 8091 0000 		lds r24,last_n_p.2801
 4932 30ae 8823      		tst r24
 4933 30b0 01F4      		brne .+2
 4934 30b2 00C0      		rjmp .L662
 4935 30b4 D801      		movw r26,r16
 4936 30b6 C701      		movw r24,r14
 4937 30b8 4CE0      		ldi r20,12
 4938 30ba B595      	1:	asr r27
 4939 30bc A795      		ror r26
 4940 30be 9795      		ror r25
 4941 30c0 8795      		ror r24
 4942 30c2 4A95      		dec r20
 4943 30c4 01F4      		brne 1b
 4944 30c6 0196      		adiw r24,1
 4945 30c8 9093 0000 		sts (cnt.2800)+1,r25
 4946 30cc 8093 0000 		sts cnt.2800,r24
 4947 30d0 D801      		movw r26,r16
 4948 30d2 C701      		movw r24,r14
 4949 30d4 33E0      		ldi r19,3
 4950 30d6 B595      	1:	asr r27
 4951 30d8 A795      		ror r26
 4952 30da 9795      		ror r25
 4953 30dc 8795      		ror r24
 4954 30de 3A95      		dec r19
 4955 30e0 01F4      		brne 1b
 4956 30e2 8093 0000 		sts ausgleichNick.2792,r24
 4957 30e6 9093 0000 		sts (ausgleichNick.2792)+1,r25
 4958 30ea A093 0000 		sts (ausgleichNick.2792)+2,r26
 4959 30ee B093 0000 		sts (ausgleichNick.2792)+3,r27
 4960 30f2 8958      		subi r24,lo8(5001)
 4961 30f4 9341      		sbci r25,hi8(5001)
 4962 30f6 A040      		sbci r26,hlo8(5001)
 4963 30f8 B040      		sbci r27,hhi8(5001)
 4964 30fa 04F0      		brlt .L664
 4965 30fc 88E8      		ldi r24,lo8(5000)
 4966 30fe 93E1      		ldi r25,hi8(5000)
 4967 3100 A0E0      		ldi r26,hlo8(5000)
 4968 3102 B0E0      		ldi r27,hhi8(5000)
 4969 3104 8093 0000 		sts ausgleichNick.2792,r24
 4970 3108 9093 0000 		sts (ausgleichNick.2792)+1,r25
 4971 310c A093 0000 		sts (ausgleichNick.2792)+2,r26
 4972 3110 B093 0000 		sts (ausgleichNick.2792)+3,r27
 4973               	.L664:
 4974 3114 6091 0000 		lds r22,ausgleichNick.2792
 4975 3118 7091 0000 		lds r23,(ausgleichNick.2792)+1
 4976 311c 8091 0000 		lds r24,(ausgleichNick.2792)+2
 4977 3120 9091 0000 		lds r25,(ausgleichNick.2792)+3
 4978 3124 20E0      		ldi r18,lo8(256)
 4979 3126 31E0      		ldi r19,hi8(256)
 4980 3128 40E0      		ldi r20,hlo8(256)
 4981 312a 50E0      		ldi r21,hhi8(256)
 4982 312c 0E94 0000 		call __divmodsi4
 4983 3130 8091 0000 		lds r24,LageKorrekturNick
 4984 3134 9091 0000 		lds r25,(LageKorrekturNick)+1
 4985 3138 820F      		add r24,r18
 4986 313a 931F      		adc r25,r19
 4987 313c 9093 0000 		sts (LageKorrekturNick)+1,r25
 4988 3140 8093 0000 		sts LageKorrekturNick,r24
 4989 3144 00C0      		rjmp .L666
 4990               	.L662:
 4991 3146 81E0      		ldi r24,lo8(1)
 4992 3148 8093 0000 		sts last_n_p.2801,r24
 4993 314c 00C0      		rjmp .L666
 4994               	.L660:
 4995 314e 1092 0000 		sts last_n_p.2801,__zero_reg__
 4996 3152 F0E0      		ldi r31,lo8(-4096)
 4997 3154 EF16      		cp r14,r31
 4998 3156 F0EF      		ldi r31,hi8(-4096)
 4999 3158 FF06      		cpc r15,r31
 5000 315a FFEF      		ldi r31,hlo8(-4096)
 5001 315c 0F07      		cpc r16,r31
 5002 315e FFEF      		ldi r31,hhi8(-4096)
 5003 3160 1F07      		cpc r17,r31
 5004 3162 04F0      		brlt .+2
 5005 3164 00C0      		rjmp .L666
 5006 3166 8091 0000 		lds r24,last_n_n.2802
 5007 316a 8823      		tst r24
 5008 316c 01F4      		brne .+2
 5009 316e 00C0      		rjmp .L668
 5010 3170 8827      		clr r24
 5011 3172 9927      		clr r25
 5012 3174 DC01      		movw r26,r24
 5013 3176 8E19      		sub r24,r14
 5014 3178 9F09      		sbc r25,r15
 5015 317a A00B      		sbc r26,r16
 5016 317c B10B      		sbc r27,r17
 5017 317e 2CE0      		ldi r18,12
 5018 3180 B595      	1:	asr r27
 5019 3182 A795      		ror r26
 5020 3184 9795      		ror r25
 5021 3186 8795      		ror r24
 5022 3188 2A95      		dec r18
 5023 318a 01F4      		brne 1b
 5024 318c 0196      		adiw r24,1
 5025 318e 9093 0000 		sts (cnt.2800)+1,r25
 5026 3192 8093 0000 		sts cnt.2800,r24
 5027 3196 C801      		movw r24,r16
 5028 3198 B701      		movw r22,r14
 5029 319a 28E0      		ldi r18,lo8(8)
 5030 319c 30E0      		ldi r19,hi8(8)
 5031 319e 40E0      		ldi r20,hlo8(8)
 5032 31a0 50E0      		ldi r21,hhi8(8)
 5033 31a2 0E94 0000 		call __divmodsi4
 5034 31a6 2093 0000 		sts ausgleichNick.2792,r18
 5035 31aa 3093 0000 		sts (ausgleichNick.2792)+1,r19
 5036 31ae 4093 0000 		sts (ausgleichNick.2792)+2,r20
 5037 31b2 5093 0000 		sts (ausgleichNick.2792)+3,r21
 5038 31b6 2857      		subi r18,lo8(-5000)
 5039 31b8 3C4E      		sbci r19,hi8(-5000)
 5040 31ba 4F4F      		sbci r20,hlo8(-5000)
 5041 31bc 5F4F      		sbci r21,hhi8(-5000)
 5042 31be 04F4      		brge .L670
 5043 31c0 88E7      		ldi r24,lo8(-5000)
 5044 31c2 9CEE      		ldi r25,hi8(-5000)
 5045 31c4 AFEF      		ldi r26,hlo8(-5000)
 5046 31c6 BFEF      		ldi r27,hhi8(-5000)
 5047 31c8 8093 0000 		sts ausgleichNick.2792,r24
 5048 31cc 9093 0000 		sts (ausgleichNick.2792)+1,r25
 5049 31d0 A093 0000 		sts (ausgleichNick.2792)+2,r26
 5050 31d4 B093 0000 		sts (ausgleichNick.2792)+3,r27
 5051               	.L670:
 5052 31d8 6091 0000 		lds r22,ausgleichNick.2792
 5053 31dc 7091 0000 		lds r23,(ausgleichNick.2792)+1
 5054 31e0 8091 0000 		lds r24,(ausgleichNick.2792)+2
 5055 31e4 9091 0000 		lds r25,(ausgleichNick.2792)+3
 5056 31e8 20E0      		ldi r18,lo8(256)
 5057 31ea 31E0      		ldi r19,hi8(256)
 5058 31ec 40E0      		ldi r20,hlo8(256)
 5059 31ee 50E0      		ldi r21,hhi8(256)
 5060 31f0 0E94 0000 		call __divmodsi4
 5061 31f4 8091 0000 		lds r24,LageKorrekturNick
 5062 31f8 9091 0000 		lds r25,(LageKorrekturNick)+1
 5063 31fc 820F      		add r24,r18
 5064 31fe 931F      		adc r25,r19
 5065 3200 9093 0000 		sts (LageKorrekturNick)+1,r25
 5066 3204 8093 0000 		sts LageKorrekturNick,r24
 5067 3208 00C0      		rjmp .L672
 5068               	.L668:
 5069 320a 81E0      		ldi r24,lo8(1)
 5070 320c 8093 0000 		sts last_n_n.2802,r24
 5071 3210 00C0      		rjmp .L672
 5072               	.L666:
 5073 3212 1092 0000 		sts last_n_n.2802,__zero_reg__
 5074 3216 00C0      		rjmp .L672
 5075               	.L657:
 5076 3218 1092 0000 		sts (cnt.2800)+1,__zero_reg__
 5077 321c 1092 0000 		sts cnt.2800,__zero_reg__
 5078               	.L672:
 5079 3220 8091 0000 		lds r24,EE_Parameter+46
 5080 3224 482E      		mov r4,r24
 5081 3226 5524      		clr r5
 5082 3228 8091 0000 		lds r24,cnt.2800
 5083 322c 9091 0000 		lds r25,(cnt.2800)+1
 5084 3230 4816      		cp r4,r24
 5085 3232 5906      		cpc r5,r25
 5086 3234 04F4      		brge .L673
 5087 3236 5092 0000 		sts (cnt.2800)+1,r5
 5088 323a 4092 0000 		sts cnt.2800,r4
 5089               	.L673:
 5090 323e 71E0      		ldi r23,lo8(1025)
 5091 3240 E716      		cp r14,r23
 5092 3242 74E0      		ldi r23,hi8(1025)
 5093 3244 F706      		cpc r15,r23
 5094 3246 70E0      		ldi r23,hlo8(1025)
 5095 3248 0707      		cpc r16,r23
 5096 324a 70E0      		ldi r23,hhi8(1025)
 5097 324c 1707      		cpc r17,r23
 5098 324e 04F0      		brlt .L675
 5099 3250 8091 0000 		lds r24,AdNeutralNick
 5100 3254 9091 0000 		lds r25,(AdNeutralNick)+1
 5101 3258 2091 0000 		lds r18,cnt.2800
 5102 325c 3091 0000 		lds r19,(cnt.2800)+1
 5103 3260 820F      		add r24,r18
 5104 3262 931F      		adc r25,r19
 5105 3264 9093 0000 		sts (AdNeutralNick)+1,r25
 5106 3268 8093 0000 		sts AdNeutralNick,r24
 5107               	.L675:
 5108 326c 80E0      		ldi r24,lo8(-1024)
 5109 326e E816      		cp r14,r24
 5110 3270 8CEF      		ldi r24,hi8(-1024)
 5111 3272 F806      		cpc r15,r24
 5112 3274 8FEF      		ldi r24,hlo8(-1024)
 5113 3276 0807      		cpc r16,r24
 5114 3278 8FEF      		ldi r24,hhi8(-1024)
 5115 327a 1807      		cpc r17,r24
 5116 327c 04F4      		brge .L677
 5117 327e 8091 0000 		lds r24,AdNeutralNick
 5118 3282 9091 0000 		lds r25,(AdNeutralNick)+1
 5119 3286 2091 0000 		lds r18,cnt.2800
 5120 328a 3091 0000 		lds r19,(cnt.2800)+1
 5121 328e 821B      		sub r24,r18
 5122 3290 930B      		sbc r25,r19
 5123 3292 9093 0000 		sts (AdNeutralNick)+1,r25
 5124 3296 8093 0000 		sts AdNeutralNick,r24
 5125               	.L677:
 5126 329a 81E0      		ldi r24,lo8(1)
 5127 329c 90E0      		ldi r25,hi8(1)
 5128 329e 9093 0000 		sts (cnt.2800)+1,r25
 5129 32a2 8093 0000 		sts cnt.2800,r24
 5130 32a6 1092 0000 		sts ausgleichRoll.2793,__zero_reg__
 5131 32aa 1092 0000 		sts (ausgleichRoll.2793)+1,__zero_reg__
 5132 32ae 1092 0000 		sts (ausgleichRoll.2793)+2,__zero_reg__
 5133 32b2 1092 0000 		sts (ausgleichRoll.2793)+3,__zero_reg__
 5134 32b6 8091 0000 		lds r24,MittelIntegralRoll
 5135 32ba 9091 0000 		lds r25,(MittelIntegralRoll)+1
 5136 32be A091 0000 		lds r26,(MittelIntegralRoll)+2
 5137 32c2 B091 0000 		lds r27,(MittelIntegralRoll)+3
 5138 32c6 2091 0000 		lds r18,MittelIntegralRoll_Alt.2806
 5139 32ca 3091 0000 		lds r19,(MittelIntegralRoll_Alt.2806)+1
 5140 32ce 4091 0000 		lds r20,(MittelIntegralRoll_Alt.2806)+2
 5141 32d2 5091 0000 		lds r21,(MittelIntegralRoll_Alt.2806)+3
 5142 32d6 281B      		sub r18,r24
 5143 32d8 390B      		sbc r19,r25
 5144 32da 4A0B      		sbc r20,r26
 5145 32dc 5B0B      		sbc r21,r27
 5146 32de 57FF      		sbrs r21,7
 5147 32e0 00C0      		rjmp .L680
 5148 32e2 5095      		com r21
 5149 32e4 4095      		com r20
 5150 32e6 3095      		com r19
 5151 32e8 2195      		neg r18
 5152 32ea 3F4F      		sbci r19,lo8(-1)
 5153 32ec 4F4F      		sbci r20,lo8(-1)
 5154 32ee 5F4F      		sbci r21,lo8(-1)
 5155               	.L680:
 5156 32f0 2052      		subi r18,lo8(20000)
 5157 32f2 3E44      		sbci r19,hi8(20000)
 5158 32f4 4040      		sbci r20,hlo8(20000)
 5159 32f6 5040      		sbci r21,hhi8(20000)
 5160 32f8 04F0      		brlt .+2
 5161 32fa 00C0      		rjmp .L679
 5162 32fc A1E0      		ldi r26,lo8(4097)
 5163 32fe 6A16      		cp r6,r26
 5164 3300 A0E1      		ldi r26,hi8(4097)
 5165 3302 7A06      		cpc r7,r26
 5166 3304 A0E0      		ldi r26,hlo8(4097)
 5167 3306 8A06      		cpc r8,r26
 5168 3308 A0E0      		ldi r26,hhi8(4097)
 5169 330a 9A06      		cpc r9,r26
 5170 330c 04F4      		brge .+2
 5171 330e 00C0      		rjmp .L682
 5172 3310 8091 0000 		lds r24,last_r_p.2803
 5173 3314 8823      		tst r24
 5174 3316 01F4      		brne .+2
 5175 3318 00C0      		rjmp .L684
 5176 331a D401      		movw r26,r8
 5177 331c C301      		movw r24,r6
 5178 331e FCE0      		ldi r31,12
 5179 3320 B595      	1:	asr r27
 5180 3322 A795      		ror r26
 5181 3324 9795      		ror r25
 5182 3326 8795      		ror r24
 5183 3328 FA95      		dec r31
 5184 332a 01F4      		brne 1b
 5185 332c 0196      		adiw r24,1
 5186 332e 9093 0000 		sts (cnt.2800)+1,r25
 5187 3332 8093 0000 		sts cnt.2800,r24
 5188 3336 D401      		movw r26,r8
 5189 3338 C301      		movw r24,r6
 5190 333a E3E0      		ldi r30,3
 5191 333c B595      	1:	asr r27
 5192 333e A795      		ror r26
 5193 3340 9795      		ror r25
 5194 3342 8795      		ror r24
 5195 3344 EA95      		dec r30
 5196 3346 01F4      		brne 1b
 5197 3348 8093 0000 		sts ausgleichRoll.2793,r24
 5198 334c 9093 0000 		sts (ausgleichRoll.2793)+1,r25
 5199 3350 A093 0000 		sts (ausgleichRoll.2793)+2,r26
 5200 3354 B093 0000 		sts (ausgleichRoll.2793)+3,r27
 5201 3358 8958      		subi r24,lo8(5001)
 5202 335a 9341      		sbci r25,hi8(5001)
 5203 335c A040      		sbci r26,hlo8(5001)
 5204 335e B040      		sbci r27,hhi8(5001)
 5205 3360 04F0      		brlt .L686
 5206 3362 88E8      		ldi r24,lo8(5000)
 5207 3364 93E1      		ldi r25,hi8(5000)
 5208 3366 A0E0      		ldi r26,hlo8(5000)
 5209 3368 B0E0      		ldi r27,hhi8(5000)
 5210 336a 8093 0000 		sts ausgleichRoll.2793,r24
 5211 336e 9093 0000 		sts (ausgleichRoll.2793)+1,r25
 5212 3372 A093 0000 		sts (ausgleichRoll.2793)+2,r26
 5213 3376 B093 0000 		sts (ausgleichRoll.2793)+3,r27
 5214               	.L686:
 5215 337a 6091 0000 		lds r22,ausgleichRoll.2793
 5216 337e 7091 0000 		lds r23,(ausgleichRoll.2793)+1
 5217 3382 8091 0000 		lds r24,(ausgleichRoll.2793)+2
 5218 3386 9091 0000 		lds r25,(ausgleichRoll.2793)+3
 5219 338a 20E0      		ldi r18,lo8(256)
 5220 338c 31E0      		ldi r19,hi8(256)
 5221 338e 40E0      		ldi r20,hlo8(256)
 5222 3390 50E0      		ldi r21,hhi8(256)
 5223 3392 0E94 0000 		call __divmodsi4
 5224 3396 C20E      		add r12,r18
 5225 3398 D31E      		adc r13,r19
 5226 339a D092 0000 		sts (LageKorrekturRoll)+1,r13
 5227 339e C092 0000 		sts LageKorrekturRoll,r12
 5228 33a2 00C0      		rjmp .L688
 5229               	.L684:
 5230 33a4 81E0      		ldi r24,lo8(1)
 5231 33a6 8093 0000 		sts last_r_p.2803,r24
 5232 33aa 00C0      		rjmp .L688
 5233               	.L682:
 5234 33ac 1092 0000 		sts last_r_p.2803,__zero_reg__
 5235 33b0 F0E0      		ldi r31,lo8(-4096)
 5236 33b2 6F16      		cp r6,r31
 5237 33b4 F0EF      		ldi r31,hi8(-4096)
 5238 33b6 7F06      		cpc r7,r31
 5239 33b8 FFEF      		ldi r31,hlo8(-4096)
 5240 33ba 8F06      		cpc r8,r31
 5241 33bc FFEF      		ldi r31,hhi8(-4096)
 5242 33be 9F06      		cpc r9,r31
 5243 33c0 04F0      		brlt .+2
 5244 33c2 00C0      		rjmp .L688
 5245 33c4 8091 0000 		lds r24,last_r_n.2804
 5246 33c8 8823      		tst r24
 5247 33ca 01F4      		brne .+2
 5248 33cc 00C0      		rjmp .L690
 5249 33ce 8827      		clr r24
 5250 33d0 9927      		clr r25
 5251 33d2 DC01      		movw r26,r24
 5252 33d4 8619      		sub r24,r6
 5253 33d6 9709      		sbc r25,r7
 5254 33d8 A809      		sbc r26,r8
 5255 33da B909      		sbc r27,r9
 5256 33dc 7CE0      		ldi r23,12
 5257 33de B595      	1:	asr r27
 5258 33e0 A795      		ror r26
 5259 33e2 9795      		ror r25
 5260 33e4 8795      		ror r24
 5261 33e6 7A95      		dec r23
 5262 33e8 01F4      		brne 1b
 5263 33ea 0196      		adiw r24,1
 5264 33ec 9093 0000 		sts (cnt.2800)+1,r25
 5265 33f0 8093 0000 		sts cnt.2800,r24
 5266 33f4 C401      		movw r24,r8
 5267 33f6 B301      		movw r22,r6
 5268 33f8 28E0      		ldi r18,lo8(8)
 5269 33fa 30E0      		ldi r19,hi8(8)
 5270 33fc 40E0      		ldi r20,hlo8(8)
 5271 33fe 50E0      		ldi r21,hhi8(8)
 5272 3400 0E94 0000 		call __divmodsi4
 5273 3404 2093 0000 		sts ausgleichRoll.2793,r18
 5274 3408 3093 0000 		sts (ausgleichRoll.2793)+1,r19
 5275 340c 4093 0000 		sts (ausgleichRoll.2793)+2,r20
 5276 3410 5093 0000 		sts (ausgleichRoll.2793)+3,r21
 5277 3414 2857      		subi r18,lo8(-5000)
 5278 3416 3C4E      		sbci r19,hi8(-5000)
 5279 3418 4F4F      		sbci r20,hlo8(-5000)
 5280 341a 5F4F      		sbci r21,hhi8(-5000)
 5281 341c 04F4      		brge .L692
 5282 341e 88E7      		ldi r24,lo8(-5000)
 5283 3420 9CEE      		ldi r25,hi8(-5000)
 5284 3422 AFEF      		ldi r26,hlo8(-5000)
 5285 3424 BFEF      		ldi r27,hhi8(-5000)
 5286 3426 8093 0000 		sts ausgleichRoll.2793,r24
 5287 342a 9093 0000 		sts (ausgleichRoll.2793)+1,r25
 5288 342e A093 0000 		sts (ausgleichRoll.2793)+2,r26
 5289 3432 B093 0000 		sts (ausgleichRoll.2793)+3,r27
 5290               	.L692:
 5291 3436 6091 0000 		lds r22,ausgleichRoll.2793
 5292 343a 7091 0000 		lds r23,(ausgleichRoll.2793)+1
 5293 343e 8091 0000 		lds r24,(ausgleichRoll.2793)+2
 5294 3442 9091 0000 		lds r25,(ausgleichRoll.2793)+3
 5295 3446 20E0      		ldi r18,lo8(256)
 5296 3448 31E0      		ldi r19,hi8(256)
 5297 344a 40E0      		ldi r20,hlo8(256)
 5298 344c 50E0      		ldi r21,hhi8(256)
 5299 344e 0E94 0000 		call __divmodsi4
 5300 3452 C20E      		add r12,r18
 5301 3454 D31E      		adc r13,r19
 5302 3456 D092 0000 		sts (LageKorrekturRoll)+1,r13
 5303 345a C092 0000 		sts LageKorrekturRoll,r12
 5304 345e 00C0      		rjmp .L694
 5305               	.L690:
 5306 3460 81E0      		ldi r24,lo8(1)
 5307 3462 8093 0000 		sts last_r_n.2804,r24
 5308 3466 00C0      		rjmp .L694
 5309               	.L688:
 5310 3468 1092 0000 		sts last_r_n.2804,__zero_reg__
 5311 346c 00C0      		rjmp .L694
 5312               	.L679:
 5313 346e 1092 0000 		sts (cnt.2800)+1,__zero_reg__
 5314 3472 1092 0000 		sts cnt.2800,__zero_reg__
 5315               	.L694:
 5316 3476 8091 0000 		lds r24,cnt.2800
 5317 347a 9091 0000 		lds r25,(cnt.2800)+1
 5318 347e 4816      		cp r4,r24
 5319 3480 5906      		cpc r5,r25
 5320 3482 04F4      		brge .L695
 5321 3484 5092 0000 		sts (cnt.2800)+1,r5
 5322 3488 4092 0000 		sts cnt.2800,r4
 5323               	.L695:
 5324 348c 71E0      		ldi r23,lo8(1025)
 5325 348e 6716      		cp r6,r23
 5326 3490 74E0      		ldi r23,hi8(1025)
 5327 3492 7706      		cpc r7,r23
 5328 3494 70E0      		ldi r23,hlo8(1025)
 5329 3496 8706      		cpc r8,r23
 5330 3498 70E0      		ldi r23,hhi8(1025)
 5331 349a 9706      		cpc r9,r23
 5332 349c 04F0      		brlt .L697
 5333 349e 8091 0000 		lds r24,AdNeutralRoll
 5334 34a2 9091 0000 		lds r25,(AdNeutralRoll)+1
 5335 34a6 2091 0000 		lds r18,cnt.2800
 5336 34aa 3091 0000 		lds r19,(cnt.2800)+1
 5337 34ae 820F      		add r24,r18
 5338 34b0 931F      		adc r25,r19
 5339 34b2 9093 0000 		sts (AdNeutralRoll)+1,r25
 5340 34b6 8093 0000 		sts AdNeutralRoll,r24
 5341               	.L697:
 5342 34ba 80E0      		ldi r24,lo8(-1024)
 5343 34bc 6816      		cp r6,r24
 5344 34be 8CEF      		ldi r24,hi8(-1024)
 5345 34c0 7806      		cpc r7,r24
 5346 34c2 8FEF      		ldi r24,hlo8(-1024)
 5347 34c4 8806      		cpc r8,r24
 5348 34c6 8FEF      		ldi r24,hhi8(-1024)
 5349 34c8 9806      		cpc r9,r24
 5350 34ca 04F4      		brge .L699
 5351 34cc 8091 0000 		lds r24,AdNeutralRoll
 5352 34d0 9091 0000 		lds r25,(AdNeutralRoll)+1
 5353 34d4 2091 0000 		lds r18,cnt.2800
 5354 34d8 3091 0000 		lds r19,(cnt.2800)+1
 5355 34dc 821B      		sub r24,r18
 5356 34de 930B      		sbc r25,r19
 5357 34e0 9093 0000 		sts (AdNeutralRoll)+1,r25
 5358 34e4 8093 0000 		sts AdNeutralRoll,r24
 5359               	.L699:
 5360 34e8 8091 0000 		lds r24,ausgleichRoll.2793
 5361 34ec 9091 0000 		lds r25,(ausgleichRoll.2793)+1
 5362 34f0 9093 0000 		sts (DebugOut+56)+1,r25
 5363 34f4 8093 0000 		sts DebugOut+56,r24
 5364 34f8 8091 0000 		lds r24,AdNeutralNick
 5365 34fc 9091 0000 		lds r25,(AdNeutralNick)+1
 5366 3500 9093 0000 		sts (DebugOut+48)+1,r25
 5367 3504 8093 0000 		sts DebugOut+48,r24
 5368 3508 8091 0000 		lds r24,AdNeutralRoll
 5369 350c 9091 0000 		lds r25,(AdNeutralRoll)+1
 5370 3510 2091 0000 		lds r18,StartNeutralRoll
 5371 3514 3091 0000 		lds r19,(StartNeutralRoll)+1
 5372 3518 821B      		sub r24,r18
 5373 351a 930B      		sbc r25,r19
 5374 351c 9C01      		movw r18,r24
 5375 351e 63E0      		ldi r22,3
 5376 3520 220F      	1:	lsl r18
 5377 3522 331F      		rol r19
 5378 3524 6A95      		dec r22
 5379 3526 01F4      		brne 1b
 5380 3528 880F      		lsl r24
 5381 352a 991F      		rol r25
 5382 352c 820F      		add r24,r18
 5383 352e 931F      		adc r25,r19
 5384 3530 9093 0000 		sts (DebugOut+50)+1,r25
 5385 3534 8093 0000 		sts DebugOut+50,r24
 5386 3538 00C0      		rjmp .L701
 5387               	.L649:
 5388 353a 1092 0000 		sts (LageKorrekturRoll)+1,__zero_reg__
 5389 353e 1092 0000 		sts LageKorrekturRoll,__zero_reg__
 5390 3542 1092 0000 		sts (LageKorrekturNick)+1,__zero_reg__
 5391 3546 1092 0000 		sts LageKorrekturNick,__zero_reg__
 5392               	.L701:
 5393 354a 20E0      		ldi r18,lo8(0x0)
 5394 354c 30E0      		ldi r19,hi8(0x0)
 5395 354e 40E0      		ldi r20,hlo8(0x0)
 5396 3550 50E0      		ldi r21,hhi8(0x0)
 5397 3552 6091 0000 		lds r22,IntegralFaktor
 5398 3556 7091 0000 		lds r23,(IntegralFaktor)+1
 5399 355a 8091 0000 		lds r24,(IntegralFaktor)+2
 5400 355e 9091 0000 		lds r25,(IntegralFaktor)+3
 5401 3562 0E94 0000 		call __nesf2
 5402 3566 8823      		tst r24
 5403 3568 01F4      		brne .L702
 5404 356a 1092 0000 		sts (LageKorrekturRoll)+1,__zero_reg__
 5405 356e 1092 0000 		sts LageKorrekturRoll,__zero_reg__
 5406 3572 1092 0000 		sts (LageKorrekturNick)+1,__zero_reg__
 5407 3576 1092 0000 		sts LageKorrekturNick,__zero_reg__
 5408               	.L702:
 5409 357a 8091 0000 		lds r24,MittelIntegralNick
 5410 357e 9091 0000 		lds r25,(MittelIntegralNick)+1
 5411 3582 A091 0000 		lds r26,(MittelIntegralNick)+2
 5412 3586 B091 0000 		lds r27,(MittelIntegralNick)+3
 5413 358a 8093 0000 		sts MittelIntegralNick_Alt.2805,r24
 5414 358e 9093 0000 		sts (MittelIntegralNick_Alt.2805)+1,r25
 5415 3592 A093 0000 		sts (MittelIntegralNick_Alt.2805)+2,r26
 5416 3596 B093 0000 		sts (MittelIntegralNick_Alt.2805)+3,r27
 5417 359a 8091 0000 		lds r24,MittelIntegralRoll
 5418 359e 9091 0000 		lds r25,(MittelIntegralRoll)+1
 5419 35a2 A091 0000 		lds r26,(MittelIntegralRoll)+2
 5420 35a6 B091 0000 		lds r27,(MittelIntegralRoll)+3
 5421 35aa 8093 0000 		sts MittelIntegralRoll_Alt.2806,r24
 5422 35ae 9093 0000 		sts (MittelIntegralRoll_Alt.2806)+1,r25
 5423 35b2 A093 0000 		sts (MittelIntegralRoll_Alt.2806)+2,r26
 5424 35b6 B093 0000 		sts (MittelIntegralRoll_Alt.2806)+3,r27
 5425 35ba 1092 0000 		sts IntegralAccNick,__zero_reg__
 5426 35be 1092 0000 		sts (IntegralAccNick)+1,__zero_reg__
 5427 35c2 1092 0000 		sts (IntegralAccNick)+2,__zero_reg__
 5428 35c6 1092 0000 		sts (IntegralAccNick)+3,__zero_reg__
 5429 35ca 1092 0000 		sts IntegralAccRoll,__zero_reg__
 5430 35ce 1092 0000 		sts (IntegralAccRoll)+1,__zero_reg__
 5431 35d2 1092 0000 		sts (IntegralAccRoll)+2,__zero_reg__
 5432 35d6 1092 0000 		sts (IntegralAccRoll)+3,__zero_reg__
 5433 35da 1092 0000 		sts IntegralAccZ,__zero_reg__
 5434 35de 1092 0000 		sts (IntegralAccZ)+1,__zero_reg__
 5435 35e2 1092 0000 		sts (IntegralAccZ)+2,__zero_reg__
 5436 35e6 1092 0000 		sts (IntegralAccZ)+3,__zero_reg__
 5437 35ea 1092 0000 		sts MittelIntegralNick,__zero_reg__
 5438 35ee 1092 0000 		sts (MittelIntegralNick)+1,__zero_reg__
 5439 35f2 1092 0000 		sts (MittelIntegralNick)+2,__zero_reg__
 5440 35f6 1092 0000 		sts (MittelIntegralNick)+3,__zero_reg__
 5441 35fa 1092 0000 		sts MittelIntegralRoll,__zero_reg__
 5442 35fe 1092 0000 		sts (MittelIntegralRoll)+1,__zero_reg__
 5443 3602 1092 0000 		sts (MittelIntegralRoll)+2,__zero_reg__
 5444 3606 1092 0000 		sts (MittelIntegralRoll)+3,__zero_reg__
 5445 360a 1092 0000 		sts MittelIntegralNick2,__zero_reg__
 5446 360e 1092 0000 		sts (MittelIntegralNick2)+1,__zero_reg__
 5447 3612 1092 0000 		sts (MittelIntegralNick2)+2,__zero_reg__
 5448 3616 1092 0000 		sts (MittelIntegralNick2)+3,__zero_reg__
 5449 361a 1092 0000 		sts MittelIntegralRoll2,__zero_reg__
 5450 361e 1092 0000 		sts (MittelIntegralRoll2)+1,__zero_reg__
 5451 3622 1092 0000 		sts (MittelIntegralRoll2)+2,__zero_reg__
 5452 3626 1092 0000 		sts (MittelIntegralRoll2)+3,__zero_reg__
 5453 362a 1092 0000 		sts (ZaehlMessungen)+1,__zero_reg__
 5454 362e 1092 0000 		sts ZaehlMessungen,__zero_reg__
 5455               	.L647:
 5456 3632 8090 0000 		lds r8,StickGier
 5457 3636 9090 0000 		lds r9,(StickGier)+1
 5458 363a 8401      		movw r16,r8
 5459 363c 97FE      		sbrs r9,7
 5460 363e 00C0      		rjmp .L704
 5461 3640 0027      		clr r16
 5462 3642 1127      		clr r17
 5463 3644 0819      		sub r16,r8
 5464 3646 1909      		sbc r17,r9
 5465               	.L704:
 5466 3648 0531      		cpi r16,21
 5467 364a 1105      		cpc r17,__zero_reg__
 5468 364c 04F0      		brlt .L705
 5469 364e 8091 0000 		lds r24,EE_Parameter+8
 5470 3652 84FD      		sbrc r24,4
 5471 3654 00C0      		rjmp .L705
 5472 3656 81E0      		ldi r24,lo8(1)
 5473 3658 8093 0000 		sts NeueKompassRichtungMerken.2791,r24
 5474               	.L705:
 5475 365c E090 0000 		lds r14,EE_Parameter+17
 5476 3660 B401      		movw r22,r8
 5477 3662 8827      		clr r24
 5478 3664 77FD      		sbrc r23,7
 5479 3666 8095      		com r24
 5480 3668 982F      		mov r25,r24
 5481 366a 2E2D      		mov r18,r14
 5482 366c 30E0      		ldi r19,lo8(0)
 5483 366e 40E0      		ldi r20,lo8(0)
 5484 3670 50E0      		ldi r21,hi8(0)
 5485 3672 0E94 0000 		call __mulsi3
 5486 3676 9801      		movw r18,r16
 5487 3678 4427      		clr r20
 5488 367a 37FD      		sbrc r19,7
 5489 367c 4095      		com r20
 5490 367e 542F      		mov r21,r20
 5491 3680 0E94 0000 		call __mulsi3
 5492 3684 20E0      		ldi r18,lo8(512)
 5493 3686 32E0      		ldi r19,hi8(512)
 5494 3688 40E0      		ldi r20,hlo8(512)
 5495 368a 50E0      		ldi r21,hhi8(512)
 5496 368c 0E94 0000 		call __divmodsi4
 5497 3690 8901      		movw r16,r18
 5498 3692 9A01      		movw r18,r20
 5499 3694 FF24      		clr r15
 5500 3696 E89C      		mul r14,r8
 5501 3698 C001      		movw r24,r0
 5502 369a E99C      		mul r14,r9
 5503 369c 900D      		add r25,r0
 5504 369e F89C      		mul r15,r8
 5505 36a0 900D      		add r25,r0
 5506 36a2 1124      		clr r1
 5507 36a4 64E0      		ldi r22,lo8(4)
 5508 36a6 70E0      		ldi r23,hi8(4)
 5509 36a8 0E94 0000 		call __divmodhi4
 5510 36ac 600F      		add r22,r16
 5511 36ae 711F      		adc r23,r17
 5512 36b0 9B01      		movw r18,r22
 5513 36b2 4427      		clr r20
 5514 36b4 37FD      		sbrc r19,7
 5515 36b6 4095      		com r20
 5516 36b8 542F      		mov r21,r20
 5517 36ba 2B8B      		std Y+19,r18
 5518 36bc 3C8B      		std Y+20,r19
 5519 36be 4D8B      		std Y+21,r20
 5520 36c0 5E8B      		std Y+22,r21
 5521 36c2 2093 0000 		sts sollGier.2779,r18
 5522 36c6 3093 0000 		sts (sollGier.2779)+1,r19
 5523 36ca 4093 0000 		sts (sollGier.2779)+2,r20
 5524 36ce 5093 0000 		sts (sollGier.2779)+3,r21
 5525 36d2 8091 0000 		lds r24,Mess_Integral_Gier
 5526 36d6 9091 0000 		lds r25,(Mess_Integral_Gier)+1
 5527 36da A091 0000 		lds r26,(Mess_Integral_Gier)+2
 5528 36de B091 0000 		lds r27,(Mess_Integral_Gier)+3
 5529 36e2 821B      		sub r24,r18
 5530 36e4 930B      		sbc r25,r19
 5531 36e6 A40B      		sbc r26,r20
 5532 36e8 B50B      		sbc r27,r21
 5533 36ea 8093 0000 		sts Mess_Integral_Gier,r24
 5534 36ee 9093 0000 		sts (Mess_Integral_Gier)+1,r25
 5535 36f2 A093 0000 		sts (Mess_Integral_Gier)+2,r26
 5536 36f6 B093 0000 		sts (Mess_Integral_Gier)+3,r27
 5537 36fa 8091 0000 		lds r24,Mess_Integral_Gier
 5538 36fe 9091 0000 		lds r25,(Mess_Integral_Gier)+1
 5539 3702 A091 0000 		lds r26,(Mess_Integral_Gier)+2
 5540 3706 B091 0000 		lds r27,(Mess_Integral_Gier)+3
 5541 370a 8155      		subi r24,lo8(50001)
 5542 370c 934C      		sbci r25,hi8(50001)
 5543 370e A040      		sbci r26,hlo8(50001)
 5544 3710 B040      		sbci r27,hhi8(50001)
 5545 3712 04F0      		brlt .L708
 5546 3714 80E5      		ldi r24,lo8(50000)
 5547 3716 93EC      		ldi r25,hi8(50000)
 5548 3718 A0E0      		ldi r26,hlo8(50000)
 5549 371a B0E0      		ldi r27,hhi8(50000)
 5550 371c 8093 0000 		sts Mess_Integral_Gier,r24
 5551 3720 9093 0000 		sts (Mess_Integral_Gier)+1,r25
 5552 3724 A093 0000 		sts (Mess_Integral_Gier)+2,r26
 5553 3728 B093 0000 		sts (Mess_Integral_Gier)+3,r27
 5554               	.L708:
 5555 372c 8091 0000 		lds r24,Mess_Integral_Gier
 5556 3730 9091 0000 		lds r25,(Mess_Integral_Gier)+1
 5557 3734 A091 0000 		lds r26,(Mess_Integral_Gier)+2
 5558 3738 B091 0000 		lds r27,(Mess_Integral_Gier)+3
 5559 373c 805B      		subi r24,lo8(-50000)
 5560 373e 9C43      		sbci r25,hi8(-50000)
 5561 3740 AF4F      		sbci r26,hlo8(-50000)
 5562 3742 BF4F      		sbci r27,hhi8(-50000)
 5563 3744 04F4      		brge .L710
 5564 3746 80EB      		ldi r24,lo8(-50000)
 5565 3748 9CE3      		ldi r25,hi8(-50000)
 5566 374a AFEF      		ldi r26,hlo8(-50000)
 5567 374c BFEF      		ldi r27,hhi8(-50000)
 5568 374e 8093 0000 		sts Mess_Integral_Gier,r24
 5569 3752 9093 0000 		sts (Mess_Integral_Gier)+1,r25
 5570 3756 A093 0000 		sts (Mess_Integral_Gier)+2,r26
 5571 375a B093 0000 		sts (Mess_Integral_Gier)+3,r27
 5572               	.L710:
 5573 375e 8091 0000 		lds r24,KompassValue
 5574 3762 9091 0000 		lds r25,(KompassValue)+1
 5575 3766 892B      		or r24,r25
 5576 3768 01F4      		brne .+2
 5577 376a 00C0      		rjmp .L712
 5578 376c 8091 0000 		lds r24,EE_Parameter+8
 5579 3770 83FF      		sbrs r24,3
 5580 3772 00C0      		rjmp .L712
 5581 3774 6091 0000 		lds r22,IntegralNick
 5582 3778 7091 0000 		lds r23,(IntegralNick)+1
 5583 377c 8091 0000 		lds r24,(IntegralNick)+2
 5584 3780 9091 0000 		lds r25,(IntegralNick)+3
 5585 3784 20E0      		ldi r18,lo8(512)
 5586 3786 32E0      		ldi r19,hi8(512)
 5587 3788 40E0      		ldi r20,hlo8(512)
 5588 378a 50E0      		ldi r21,hhi8(512)
 5589 378c 0E94 0000 		call __divmodsi4
 5590 3790 8901      		movw r16,r18
 5591 3792 37FF      		sbrs r19,7
 5592 3794 00C0      		rjmp .L715
 5593 3796 1095      		com r17
 5594 3798 0195      		neg r16
 5595 379a 1F4F      		sbci r17,lo8(-1)
 5596               	.L715:
 5597 379c 6091 0000 		lds r22,IntegralRoll
 5598 37a0 7091 0000 		lds r23,(IntegralRoll)+1
 5599 37a4 8091 0000 		lds r24,(IntegralRoll)+2
 5600 37a8 9091 0000 		lds r25,(IntegralRoll)+3
 5601 37ac 20E0      		ldi r18,lo8(512)
 5602 37ae 32E0      		ldi r19,hi8(512)
 5603 37b0 40E0      		ldi r20,hlo8(512)
 5604 37b2 50E0      		ldi r21,hhi8(512)
 5605 37b4 0E94 0000 		call __divmodsi4
 5606 37b8 B901      		movw r22,r18
 5607 37ba 37FF      		sbrs r19,7
 5608 37bc 00C0      		rjmp .L716
 5609 37be 7095      		com r23
 5610 37c0 6195      		neg r22
 5611 37c2 7F4F      		sbci r23,lo8(-1)
 5612               	.L716:
 5613 37c4 6017      		cp r22,r16
 5614 37c6 7107      		cpc r23,r17
 5615 37c8 04F4      		brge .L717
 5616 37ca B801      		movw r22,r16
 5617               	.L717:
 5618 37cc 6931      		cpi r22,25
 5619 37ce 7105      		cpc r23,__zero_reg__
 5620 37d0 04F4      		brge .L718
 5621 37d2 8091 0000 		lds r24,NeueKompassRichtungMerken.2791
 5622 37d6 8823      		tst r24
 5623 37d8 01F0      		breq .L718
 5624 37da 8091 0000 		lds r24,SignalSchlecht.2809
 5625 37de 9091 0000 		lds r25,(SignalSchlecht.2809)+1
 5626 37e2 892B      		or r24,r25
 5627 37e4 01F4      		brne .L718
 5628 37e6 8091 0000 		lds r24,KompassValue
 5629 37ea 9091 0000 		lds r25,(KompassValue)+1
 5630 37ee 9093 0000 		sts (KompassStartwert)+1,r25
 5631 37f2 8093 0000 		sts KompassStartwert,r24
 5632 37f6 1092 0000 		sts NeueKompassRichtungMerken.2791,__zero_reg__
 5633               	.L718:
 5634 37fa 2091 0000 		lds r18,Parameter_KompassWirkung
 5635 37fe 30E0      		ldi r19,lo8(0)
 5636 3800 629F      		mul r22,r18
 5637 3802 C001      		movw r24,r0
 5638 3804 639F      		mul r22,r19
 5639 3806 900D      		add r25,r0
 5640 3808 729F      		mul r23,r18
 5641 380a 900D      		add r25,r0
 5642 380c 1124      		clr r1
 5643 380e 60E4      		ldi r22,lo8(64)
 5644 3810 70E0      		ldi r23,hi8(64)
 5645 3812 0E94 0000 		call __divmodhi4
 5646 3816 A901      		movw r20,r18
 5647 3818 461B      		sub r20,r22
 5648 381a 570B      		sbc r21,r23
 5649 381c 1416      		cp __zero_reg__,r20
 5650 381e 1506      		cpc __zero_reg__,r21
 5651 3820 04F4      		brge .L722
 5652 3822 8091 0000 		lds r24,SignalSchlecht.2809
 5653 3826 9091 0000 		lds r25,(SignalSchlecht.2809)+1
 5654 382a 0097      		sbiw r24,0
 5655 382c 01F4      		brne .L724
 5656 382e 0091 0000 		lds r16,Mess_Integral_Gier
 5657 3832 1091 0000 		lds r17,(Mess_Integral_Gier)+1
 5658 3836 2091 0000 		lds r18,(Mess_Integral_Gier)+2
 5659 383a 3091 0000 		lds r19,(Mess_Integral_Gier)+3
 5660 383e 8091 0000 		lds r24,KompassRichtung
 5661 3842 9091 0000 		lds r25,(KompassRichtung)+1
 5662 3846 BC01      		movw r22,r24
 5663 3848 469F      		mul r20,r22
 5664 384a C001      		movw r24,r0
 5665 384c 479F      		mul r20,r23
 5666 384e 900D      		add r25,r0
 5667 3850 569F      		mul r21,r22
 5668 3852 900D      		add r25,r0
 5669 3854 1124      		clr r1
 5670 3856 60E2      		ldi r22,lo8(32)
 5671 3858 70E0      		ldi r23,hi8(32)
 5672 385a 0E94 0000 		call __divmodhi4
 5673 385e 8827      		clr r24
 5674 3860 77FD      		sbrc r23,7
 5675 3862 8095      		com r24
 5676 3864 982F      		mov r25,r24
 5677 3866 600F      		add r22,r16
 5678 3868 711F      		adc r23,r17
 5679 386a 821F      		adc r24,r18
 5680 386c 931F      		adc r25,r19
 5681 386e 6093 0000 		sts Mess_Integral_Gier,r22
 5682 3872 7093 0000 		sts (Mess_Integral_Gier)+1,r23
 5683 3876 8093 0000 		sts (Mess_Integral_Gier)+2,r24
 5684 387a 9093 0000 		sts (Mess_Integral_Gier)+3,r25
 5685 387e 00C0      		rjmp .L712
 5686               	.L724:
 5687 3880 0197      		sbiw r24,1
 5688 3882 00C0      		rjmp .L817
 5689               	.L722:
 5690 3884 84EF      		ldi r24,lo8(500)
 5691 3886 91E0      		ldi r25,hi8(500)
 5692               	.L817:
 5693 3888 9093 0000 		sts (SignalSchlecht.2809)+1,r25
 5694 388c 8093 0000 		sts SignalSchlecht.2809,r24
 5695               	.L712:
 5696 3890 8091 0000 		lds r24,TimerWerteausgabe.2790
 5697 3894 8150      		subi r24,lo8(-(-1))
 5698 3896 8093 0000 		sts TimerWerteausgabe.2790,r24
 5699 389a 8F3F      		cpi r24,lo8(-1)
 5700 389c 01F0      		breq .+2
 5701 389e 00C0      		rjmp .L814
 5702 38a0 88E1      		ldi r24,lo8(24)
 5703 38a2 8093 0000 		sts TimerWerteausgabe.2790,r24
 5704 38a6 6091 0000 		lds r22,IntegralNick
 5705 38aa 7091 0000 		lds r23,(IntegralNick)+1
 5706 38ae 8091 0000 		lds r24,(IntegralNick)+2
 5707 38b2 9091 0000 		lds r25,(IntegralNick)+3
 5708 38b6 E090 0000 		lds r14,EE_Parameter+20
 5709 38ba FF24      		clr r15
 5710 38bc 00E0      		ldi r16,lo8(0)
 5711 38be 10E0      		ldi r17,hi8(0)
 5712 38c0 A801      		movw r20,r16
 5713 38c2 9701      		movw r18,r14
 5714 38c4 0E94 0000 		call __divmodsi4
 5715 38c8 3093 0000 		sts (DebugOut+2)+1,r19
 5716 38cc 2093 0000 		sts DebugOut+2,r18
 5717 38d0 6091 0000 		lds r22,IntegralRoll
 5718 38d4 7091 0000 		lds r23,(IntegralRoll)+1
 5719 38d8 8091 0000 		lds r24,(IntegralRoll)+2
 5720 38dc 9091 0000 		lds r25,(IntegralRoll)+3
 5721 38e0 A801      		movw r20,r16
 5722 38e2 9701      		movw r18,r14
 5723 38e4 0E94 0000 		call __divmodsi4
 5724 38e8 3093 0000 		sts (DebugOut+4)+1,r19
 5725 38ec 2093 0000 		sts DebugOut+4,r18
 5726 38f0 8091 0000 		lds r24,Mittelwert_AccNick
 5727 38f4 9091 0000 		lds r25,(Mittelwert_AccNick)+1
 5728 38f8 9093 0000 		sts (DebugOut+6)+1,r25
 5729 38fc 8093 0000 		sts DebugOut+6,r24
 5730 3900 8091 0000 		lds r24,Mittelwert_AccRoll
 5731 3904 9091 0000 		lds r25,(Mittelwert_AccRoll)+1
 5732 3908 9093 0000 		sts (DebugOut+8)+1,r25
 5733 390c 8093 0000 		sts DebugOut+8,r24
 5734 3910 8091 0000 		lds r24,MesswertGier
 5735 3914 9091 0000 		lds r25,(MesswertGier)+1
 5736 3918 9093 0000 		sts (DebugOut+10)+1,r25
 5737 391c 8093 0000 		sts DebugOut+10,r24
 5738 3920 8090 0000 		lds r8,HoehenWert
 5739 3924 9090 0000 		lds r9,(HoehenWert)+1
 5740 3928 9092 0000 		sts (DebugOut+12)+1,r9
 5741 392c 8092 0000 		sts DebugOut+12,r8
 5742 3930 6091 0000 		lds r22,Mess_Integral_Hoch
 5743 3934 7091 0000 		lds r23,(Mess_Integral_Hoch)+1
 5744 3938 8091 0000 		lds r24,(Mess_Integral_Hoch)+2
 5745 393c 9091 0000 		lds r25,(Mess_Integral_Hoch)+3
 5746 3940 20E0      		ldi r18,lo8(512)
 5747 3942 32E0      		ldi r19,hi8(512)
 5748 3944 40E0      		ldi r20,hlo8(512)
 5749 3946 50E0      		ldi r21,hhi8(512)
 5750 3948 0E94 0000 		call __divmodsi4
 5751 394c 3093 0000 		sts (DebugOut+14)+1,r19
 5752 3950 2093 0000 		sts DebugOut+14,r18
 5753 3954 8091 0000 		lds r24,KompassValue
 5754 3958 9091 0000 		lds r25,(KompassValue)+1
 5755 395c 9093 0000 		sts (DebugOut+18)+1,r25
 5756 3960 8093 0000 		sts DebugOut+18,r24
 5757 3964 8091 0000 		lds r24,UBat
 5758 3968 9091 0000 		lds r25,(UBat)+1
 5759 396c 9093 0000 		sts (DebugOut+20)+1,r25
 5760 3970 8093 0000 		sts DebugOut+20,r24
 5761 3974 8091 0000 		lds r24,SenderOkay
 5762 3978 90E0      		ldi r25,lo8(0)
 5763 397a 9093 0000 		sts (DebugOut+22)+1,r25
 5764 397e 8093 0000 		sts DebugOut+22,r24
 5765 3982 8091 0000 		lds r24,Mittelwert_AccHoch
 5766 3986 9091 0000 		lds r25,(Mittelwert_AccHoch)+1
 5767 398a 9093 0000 		sts (DebugOut+34)+1,r25
 5768 398e 8093 0000 		sts DebugOut+34,r24
 5769 3992 7A81      		ldd r23,Y+2
 5770 3994 7723      		tst r23
 5771 3996 01F0      		breq .L728
 5772 3998 6091 0000 		lds r22,MesswertNick
 5773 399c 7091 0000 		lds r23,(MesswertNick)+1
 5774 39a0 8827      		clr r24
 5775 39a2 77FD      		sbrc r23,7
 5776 39a4 8095      		com r24
 5777 39a6 982F      		mov r25,r24
 5778 39a8 0E94 0000 		call __floatsisf
 5779 39ac 2091 0000 		lds r18,GyroFaktor
 5780 39b0 3091 0000 		lds r19,(GyroFaktor)+1
 5781 39b4 4091 0000 		lds r20,(GyroFaktor)+2
 5782 39b8 5091 0000 		lds r21,(GyroFaktor)+3
 5783 39bc 0E94 0000 		call __mulsf3
 5784 39c0 00C0      		rjmp .L818
 5785               	.L728:
 5786 39c2 6091 0000 		lds r22,IntegralNick
 5787 39c6 7091 0000 		lds r23,(IntegralNick)+1
 5788 39ca 8091 0000 		lds r24,(IntegralNick)+2
 5789 39ce 9091 0000 		lds r25,(IntegralNick)+3
 5790 39d2 E090 0000 		lds r14,MesswertNick
 5791 39d6 F090 0000 		lds r15,(MesswertNick)+1
 5792 39da 0E94 0000 		call __floatsisf
 5793 39de 2091 0000 		lds r18,IntegralFaktor
 5794 39e2 3091 0000 		lds r19,(IntegralFaktor)+1
 5795 39e6 4091 0000 		lds r20,(IntegralFaktor)+2
 5796 39ea 5091 0000 		lds r21,(IntegralFaktor)+3
 5797 39ee 0E94 0000 		call __mulsf3
 5798 39f2 5B01      		movw r10,r22
 5799 39f4 6C01      		movw r12,r24
 5800 39f6 0027      		clr r16
 5801 39f8 F7FC      		sbrc r15,7
 5802 39fa 0095      		com r16
 5803 39fc 102F      		mov r17,r16
 5804 39fe C801      		movw r24,r16
 5805 3a00 B701      		movw r22,r14
 5806 3a02 0E94 0000 		call __floatsisf
 5807 3a06 2091 0000 		lds r18,GyroFaktor
 5808 3a0a 3091 0000 		lds r19,(GyroFaktor)+1
 5809 3a0e 4091 0000 		lds r20,(GyroFaktor)+2
 5810 3a12 5091 0000 		lds r21,(GyroFaktor)+3
 5811 3a16 0E94 0000 		call __mulsf3
 5812 3a1a 9B01      		movw r18,r22
 5813 3a1c AC01      		movw r20,r24
 5814 3a1e C601      		movw r24,r12
 5815 3a20 B501      		movw r22,r10
 5816 3a22 0E94 0000 		call __addsf3
 5817               	.L818:
 5818 3a26 0E94 0000 		call __fixsfsi
 5819 3a2a 7093 0000 		sts (MesswertNick)+1,r23
 5820 3a2e 6093 0000 		sts MesswertNick,r22
 5821 3a32 8091 0000 		lds r24,Looping_Roll
 5822 3a36 8823      		tst r24
 5823 3a38 01F0      		breq .L731
 5824 3a3a 6091 0000 		lds r22,MesswertRoll
 5825 3a3e 7091 0000 		lds r23,(MesswertRoll)+1
 5826 3a42 8827      		clr r24
 5827 3a44 77FD      		sbrc r23,7
 5828 3a46 8095      		com r24
 5829 3a48 982F      		mov r25,r24
 5830 3a4a 0E94 0000 		call __floatsisf
 5831 3a4e 2091 0000 		lds r18,GyroFaktor
 5832 3a52 3091 0000 		lds r19,(GyroFaktor)+1
 5833 3a56 4091 0000 		lds r20,(GyroFaktor)+2
 5834 3a5a 5091 0000 		lds r21,(GyroFaktor)+3
 5835 3a5e 0E94 0000 		call __mulsf3
 5836 3a62 00C0      		rjmp .L819
 5837               	.L731:
 5838 3a64 6091 0000 		lds r22,IntegralRoll
 5839 3a68 7091 0000 		lds r23,(IntegralRoll)+1
 5840 3a6c 8091 0000 		lds r24,(IntegralRoll)+2
 5841 3a70 9091 0000 		lds r25,(IntegralRoll)+3
 5842 3a74 E090 0000 		lds r14,MesswertRoll
 5843 3a78 F090 0000 		lds r15,(MesswertRoll)+1
 5844 3a7c 0E94 0000 		call __floatsisf
 5845 3a80 2091 0000 		lds r18,IntegralFaktor
 5846 3a84 3091 0000 		lds r19,(IntegralFaktor)+1
 5847 3a88 4091 0000 		lds r20,(IntegralFaktor)+2
 5848 3a8c 5091 0000 		lds r21,(IntegralFaktor)+3
 5849 3a90 0E94 0000 		call __mulsf3
 5850 3a94 5B01      		movw r10,r22
 5851 3a96 6C01      		movw r12,r24
 5852 3a98 0027      		clr r16
 5853 3a9a F7FC      		sbrc r15,7
 5854 3a9c 0095      		com r16
 5855 3a9e 102F      		mov r17,r16
 5856 3aa0 C801      		movw r24,r16
 5857 3aa2 B701      		movw r22,r14
 5858 3aa4 0E94 0000 		call __floatsisf
 5859 3aa8 2091 0000 		lds r18,GyroFaktor
 5860 3aac 3091 0000 		lds r19,(GyroFaktor)+1
 5861 3ab0 4091 0000 		lds r20,(GyroFaktor)+2
 5862 3ab4 5091 0000 		lds r21,(GyroFaktor)+3
 5863 3ab8 0E94 0000 		call __mulsf3
 5864 3abc 9B01      		movw r18,r22
 5865 3abe AC01      		movw r20,r24
 5866 3ac0 C601      		movw r24,r12
 5867 3ac2 B501      		movw r22,r10
 5868 3ac4 0E94 0000 		call __addsf3
 5869               	.L819:
 5870 3ac8 0E94 0000 		call __fixsfsi
 5871 3acc 7093 0000 		sts (MesswertRoll)+1,r23
 5872 3ad0 6093 0000 		sts MesswertRoll,r22
 5873 3ad4 6091 0000 		lds r22,MesswertGier
 5874 3ad8 7091 0000 		lds r23,(MesswertGier)+1
 5875 3adc A090 0000 		lds r10,Integral_Gier
 5876 3ae0 B090 0000 		lds r11,(Integral_Gier)+1
 5877 3ae4 C090 0000 		lds r12,(Integral_Gier)+2
 5878 3ae8 D090 0000 		lds r13,(Integral_Gier)+3
 5879 3aec 8091 0000 		lds r24,IntegralFaktor
 5880 3af0 9091 0000 		lds r25,(IntegralFaktor)+1
 5881 3af4 A091 0000 		lds r26,(IntegralFaktor)+2
 5882 3af8 B091 0000 		lds r27,(IntegralFaktor)+3
 5883 3afc 8B83      		std Y+3,r24
 5884 3afe 9C83      		std Y+4,r25
 5885 3b00 AD83      		std Y+5,r26
 5886 3b02 BE83      		std Y+6,r27
 5887 3b04 8827      		clr r24
 5888 3b06 77FD      		sbrc r23,7
 5889 3b08 8095      		com r24
 5890 3b0a 982F      		mov r25,r24
 5891 3b0c 0E94 0000 		call __floatsisf
 5892 3b10 7B01      		movw r14,r22
 5893 3b12 8C01      		movw r16,r24
 5894 3b14 6091 0000 		lds r22,GyroFaktor
 5895 3b18 7091 0000 		lds r23,(GyroFaktor)+1
 5896 3b1c 8091 0000 		lds r24,(GyroFaktor)+2
 5897 3b20 9091 0000 		lds r25,(GyroFaktor)+3
 5898 3b24 9B01      		movw r18,r22
 5899 3b26 AC01      		movw r20,r24
 5900 3b28 0E94 0000 		call __addsf3
 5901 3b2c 9B01      		movw r18,r22
 5902 3b2e AC01      		movw r20,r24
 5903 3b30 C801      		movw r24,r16
 5904 3b32 B701      		movw r22,r14
 5905 3b34 0E94 0000 		call __mulsf3
 5906 3b38 7B01      		movw r14,r22
 5907 3b3a 8C01      		movw r16,r24
 5908 3b3c C601      		movw r24,r12
 5909 3b3e B501      		movw r22,r10
 5910 3b40 0E94 0000 		call __floatsisf
 5911 3b44 2B81      		ldd r18,Y+3
 5912 3b46 3C81      		ldd r19,Y+4
 5913 3b48 4D81      		ldd r20,Y+5
 5914 3b4a 5E81      		ldd r21,Y+6
 5915 3b4c 0E94 0000 		call __mulsf3
 5916 3b50 20E0      		ldi r18,lo8(0x3f000000)
 5917 3b52 30E0      		ldi r19,hi8(0x3f000000)
 5918 3b54 40E0      		ldi r20,hlo8(0x3f000000)
 5919 3b56 5FE3      		ldi r21,hhi8(0x3f000000)
 5920 3b58 0E94 0000 		call __mulsf3
 5921 3b5c 9B01      		movw r18,r22
 5922 3b5e AC01      		movw r20,r24
 5923 3b60 C801      		movw r24,r16
 5924 3b62 B701      		movw r22,r14
 5925 3b64 0E94 0000 		call __addsf3
 5926 3b68 0E94 0000 		call __fixsfsi
 5927 3b6c 7093 0000 		sts (MesswertGier)+1,r23
 5928 3b70 6093 0000 		sts MesswertGier,r22
 5929 3b74 6091 0000 		lds r22,IntegralRoll
 5930 3b78 7091 0000 		lds r23,(IntegralRoll)+1
 5931 3b7c 8091 0000 		lds r24,(IntegralRoll)+2
 5932 3b80 9091 0000 		lds r25,(IntegralRoll)+3
 5933 3b84 0E94 0000 		call __floatsisf
 5934 3b88 2B81      		ldd r18,Y+3
 5935 3b8a 3C81      		ldd r19,Y+4
 5936 3b8c 4D81      		ldd r20,Y+5
 5937 3b8e 5E81      		ldd r21,Y+6
 5938 3b90 0E94 0000 		call __mulsf3
 5939 3b94 0E94 0000 		call __fixunssfsi
 5940 3b98 7093 0000 		sts (DebugOut+52)+1,r23
 5941 3b9c 6093 0000 		sts DebugOut+52,r22
 5942 3ba0 A091 0000 		lds r26,StickRoll
 5943 3ba4 B091 0000 		lds r27,(StickRoll)+1
 5944 3ba8 B887      		std Y+8,r27
 5945 3baa AF83      		std Y+7,r26
 5946 3bac B093 0000 		sts (DebugOut+64)+1,r27
 5947 3bb0 A093 0000 		sts DebugOut+64,r26
 5948 3bb4 8091 0000 		lds r24,MesswertRoll
 5949 3bb8 9091 0000 		lds r25,(MesswertRoll)+1
 5950 3bbc 9093 0000 		sts (DebugOut+58)+1,r25
 5951 3bc0 8093 0000 		sts DebugOut+58,r24
 5952 3bc4 8091 0000 		lds r24,MesswertNick
 5953 3bc8 9091 0000 		lds r25,(MesswertNick)+1
 5954 3bcc 8150      		subi r24,lo8(2049)
 5955 3bce 9840      		sbci r25,hi8(2049)
 5956 3bd0 04F0      		brlt .L734
 5957 3bd2 80E0      		ldi r24,lo8(2048)
 5958 3bd4 98E0      		ldi r25,hi8(2048)
 5959 3bd6 9093 0000 		sts (MesswertNick)+1,r25
 5960 3bda 8093 0000 		sts MesswertNick,r24
 5961               	.L734:
 5962 3bde 8091 0000 		lds r24,MesswertNick
 5963 3be2 9091 0000 		lds r25,(MesswertNick)+1
 5964 3be6 8050      		subi r24,lo8(-2048)
 5965 3be8 984F      		sbci r25,hi8(-2048)
 5966 3bea 04F4      		brge .L736
 5967 3bec 80E0      		ldi r24,lo8(-2048)
 5968 3bee 98EF      		ldi r25,hi8(-2048)
 5969 3bf0 9093 0000 		sts (MesswertNick)+1,r25
 5970 3bf4 8093 0000 		sts MesswertNick,r24
 5971               	.L736:
 5972 3bf8 8091 0000 		lds r24,MesswertRoll
 5973 3bfc 9091 0000 		lds r25,(MesswertRoll)+1
 5974 3c00 8150      		subi r24,lo8(2049)
 5975 3c02 9840      		sbci r25,hi8(2049)
 5976 3c04 04F0      		brlt .L738
 5977 3c06 80E0      		ldi r24,lo8(2048)
 5978 3c08 98E0      		ldi r25,hi8(2048)
 5979 3c0a 9093 0000 		sts (MesswertRoll)+1,r25
 5980 3c0e 8093 0000 		sts MesswertRoll,r24
 5981               	.L738:
 5982 3c12 8091 0000 		lds r24,MesswertRoll
 5983 3c16 9091 0000 		lds r25,(MesswertRoll)+1
 5984 3c1a 8050      		subi r24,lo8(-2048)
 5985 3c1c 984F      		sbci r25,hi8(-2048)
 5986 3c1e 04F4      		brge .L740
 5987 3c20 80E0      		ldi r24,lo8(-2048)
 5988 3c22 98EF      		ldi r25,hi8(-2048)
 5989 3c24 9093 0000 		sts (MesswertRoll)+1,r25
 5990 3c28 8093 0000 		sts MesswertRoll,r24
 5991               	.L740:
 5992 3c2c 8091 0000 		lds r24,MesswertGier
 5993 3c30 9091 0000 		lds r25,(MesswertGier)+1
 5994 3c34 8150      		subi r24,lo8(2049)
 5995 3c36 9840      		sbci r25,hi8(2049)
 5996 3c38 04F0      		brlt .L742
 5997 3c3a 80E0      		ldi r24,lo8(2048)
 5998 3c3c 98E0      		ldi r25,hi8(2048)
 5999 3c3e 9093 0000 		sts (MesswertGier)+1,r25
 6000 3c42 8093 0000 		sts MesswertGier,r24
 6001               	.L742:
 6002 3c46 8091 0000 		lds r24,MesswertGier
 6003 3c4a 9091 0000 		lds r25,(MesswertGier)+1
 6004 3c4e 8050      		subi r24,lo8(-2048)
 6005 3c50 984F      		sbci r25,hi8(-2048)
 6006 3c52 04F4      		brge .L744
 6007 3c54 80E0      		ldi r24,lo8(-2048)
 6008 3c56 98EF      		ldi r25,hi8(-2048)
 6009 3c58 9093 0000 		sts (MesswertGier)+1,r25
 6010 3c5c 8093 0000 		sts MesswertGier,r24
 6011               	.L744:
 6012 3c60 8091 0000 		lds r24,EE_Parameter+8
 6013 3c64 80FF      		sbrs r24,0
 6014 3c66 00C0      		rjmp .L746
 6015 3c68 4091 0000 		lds r20,Parameter_MaxHoehe
 6016 3c6c 81FF      		sbrs r24,1
 6017 3c6e 00C0      		rjmp .L748
 6018 3c70 4233      		cpi r20,lo8(50)
 6019 3c72 00F4      		brsh .L820
 6020 3c74 6CEE      		ldi r22,lo8(-20)
 6021 3c76 7FEF      		ldi r23,hi8(-20)
 6022 3c78 860E      		add r8,r22
 6023 3c7a 971E      		adc r9,r23
 6024 3c7c 9092 0000 		sts (SollHoehe)+1,r9
 6025 3c80 8092 0000 		sts SollHoehe,r8
 6026 3c84 84E1      		ldi r24,lo8(20)
 6027 3c86 90E0      		ldi r25,hi8(20)
 6028 3c88 880E      		add r8,r24
 6029 3c8a 991E      		adc r9,r25
 6030 3c8c 1092 0000 		sts HoehenReglerAktiv,__zero_reg__
 6031 3c90 00C0      		rjmp .L752
 6032               	.L748:
 6033 3c92 2091 0000 		lds r18,ExternHoehenValue
 6034 3c96 3091 0000 		lds r19,(ExternHoehenValue)+1
 6035 3c9a 240F      		add r18,r20
 6036 3c9c 311D      		adc r19,__zero_reg__
 6037 3c9e 8091 0000 		lds r24,EE_Parameter+13
 6038 3ca2 90E0      		ldi r25,lo8(0)
 6039 3ca4 DC01      		movw r26,r24
 6040 3ca6 2A9F      		mul r18,r26
 6041 3ca8 C001      		movw r24,r0
 6042 3caa 2B9F      		mul r18,r27
 6043 3cac 900D      		add r25,r0
 6044 3cae 3A9F      		mul r19,r26
 6045 3cb0 900D      		add r25,r0
 6046 3cb2 1124      		clr r1
 6047 3cb4 4497      		sbiw r24,20
 6048 3cb6 9093 0000 		sts (SollHoehe)+1,r25
 6049 3cba 8093 0000 		sts SollHoehe,r24
 6050               	.L820:
 6051 3cbe 81E0      		ldi r24,lo8(1)
 6052 3cc0 8093 0000 		sts HoehenReglerAktiv,r24
 6053               	.L752:
 6054 3cc4 B981      		ldd r27,Y+1
 6055 3cc6 BB23      		tst r27
 6056 3cc8 01F0      		breq .L753
 6057 3cca 1092 0000 		sts (SollHoehe)+1,__zero_reg__
 6058 3cce 1092 0000 		sts SollHoehe,__zero_reg__
 6059               	.L753:
 6060 3cd2 2091 0000 		lds r18,SollHoehe
 6061 3cd6 3091 0000 		lds r19,(SollHoehe)+1
 6062 3cda 2815      		cp r18,r8
 6063 3cdc 3905      		cpc r19,r9
 6064 3cde 04F0      		brlt .+2
 6065 3ce0 00C0      		rjmp .L746
 6066 3ce2 8091 0000 		lds r24,HoehenReglerAktiv
 6067 3ce6 8823      		tst r24
 6068 3ce8 01F4      		brne .+2
 6069 3cea 00C0      		rjmp .L746
 6070 3cec 8091 0000 		lds r24,Parameter_Hoehe_P
 6071 3cf0 90E0      		ldi r25,lo8(0)
 6072 3cf2 821A      		sub r8,r18
 6073 3cf4 930A      		sbc r9,r19
 6074 3cf6 FC01      		movw r30,r24
 6075 3cf8 E89D      		mul r30,r8
 6076 3cfa C001      		movw r24,r0
 6077 3cfc E99D      		mul r30,r9
 6078 3cfe 900D      		add r25,r0
 6079 3d00 F89D      		mul r31,r8
 6080 3d02 900D      		add r25,r0
 6081 3d04 1124      		clr r1
 6082 3d06 60E1      		ldi r22,lo8(16)
 6083 3d08 70E0      		ldi r23,hi8(16)
 6084 3d0a 0E94 0000 		call __divmodhi4
 6085 3d0e 4B01      		movw r8,r22
 6086 3d10 C090 0000 		lds r12,HoeheD
 6087 3d14 D090 0000 		lds r13,(HoeheD)+1
 6088 3d18 6091 0000 		lds r22,Mess_Integral_Hoch
 6089 3d1c 7091 0000 		lds r23,(Mess_Integral_Hoch)+1
 6090 3d20 8091 0000 		lds r24,(Mess_Integral_Hoch)+2
 6091 3d24 9091 0000 		lds r25,(Mess_Integral_Hoch)+3
 6092 3d28 E090 0000 		lds r14,Parameter_Hoehe_ACC_Wirkung
 6093 3d2c FF24      		clr r15
 6094 3d2e 00E0      		ldi r16,lo8(0)
 6095 3d30 10E0      		ldi r17,hi8(0)
 6096 3d32 20E0      		ldi r18,lo8(512)
 6097 3d34 32E0      		ldi r19,hi8(512)
 6098 3d36 40E0      		ldi r20,hlo8(512)
 6099 3d38 50E0      		ldi r21,hhi8(512)
 6100 3d3a 0E94 0000 		call __divmodsi4
 6101 3d3e C801      		movw r24,r16
 6102 3d40 B701      		movw r22,r14
 6103 3d42 0E94 0000 		call __mulsi3
 6104 3d46 20E2      		ldi r18,lo8(32)
 6105 3d48 30E0      		ldi r19,hi8(32)
 6106 3d4a 40E0      		ldi r20,hlo8(32)
 6107 3d4c 50E0      		ldi r21,hhi8(32)
 6108 3d4e 0E94 0000 		call __divmodsi4
 6109 3d52 FFEF      		ldi r31,hi8(-50)
 6110 3d54 2E3C      		cpi r18,lo8(-50)
 6111 3d56 3F07      		cpc r19,r31
 6112 3d58 04F4      		brge .L757
 6113 3d5a 2EEC      		ldi r18,lo8(-50)
 6114 3d5c 3FEF      		ldi r19,hi8(-50)
 6115               	.L757:
 6116 3d5e 8091 0000 		lds r24,hoehenregler.2789
 6117 3d62 9091 0000 		lds r25,(hoehenregler.2789)+1
 6118 3d66 8C01      		movw r16,r24
 6119 3d68 44E0      		ldi r20,4
 6120 3d6a 000F      	1:	lsl r16
 6121 3d6c 111F      		rol r17
 6122 3d6e 4A95      		dec r20
 6123 3d70 01F4      		brne 1b
 6124 3d72 081B      		sub r16,r24
 6125 3d74 190B      		sbc r17,r25
 6126 3d76 8091 0000 		lds r24,Parameter_Luftdruck_D
 6127 3d7a 90E0      		ldi r25,lo8(0)
 6128 3d7c AC01      		movw r20,r24
 6129 3d7e 4C9D      		mul r20,r12
 6130 3d80 C001      		movw r24,r0
 6131 3d82 4D9D      		mul r20,r13
 6132 3d84 900D      		add r25,r0
 6133 3d86 5C9D      		mul r21,r12
 6134 3d88 900D      		add r25,r0
 6135 3d8a 1124      		clr r1
 6136 3d8c 68E0      		ldi r22,lo8(8)
 6137 3d8e 70E0      		ldi r23,hi8(8)
 6138 3d90 0E94 0000 		call __divmodhi4
 6139 3d94 061B      		sub r16,r22
 6140 3d96 170B      		sbc r17,r23
 6141 3d98 2333      		cpi r18,51
 6142 3d9a 3105      		cpc r19,__zero_reg__
 6143 3d9c 04F0      		brlt .L758
 6144 3d9e 22E3      		ldi r18,lo8(50)
 6145 3da0 30E0      		ldi r19,hi8(50)
 6146               	.L758:
 6147 3da2 021B      		sub r16,r18
 6148 3da4 130B      		sbc r17,r19
 6149 3da6 8B85      		ldd r24,Y+11
 6150 3da8 9C85      		ldd r25,Y+12
 6151 3daa 8819      		sub r24,r8
 6152 3dac 9909      		sbc r25,r9
 6153 3dae 800F      		add r24,r16
 6154 3db0 911F      		adc r25,r17
 6155 3db2 60E1      		ldi r22,lo8(16)
 6156 3db4 70E0      		ldi r23,hi8(16)
 6157 3db6 0E94 0000 		call __divmodhi4
 6158 3dba 7093 0000 		sts (hoehenregler.2789)+1,r23
 6159 3dbe 6093 0000 		sts hoehenregler.2789,r22
 6160 3dc2 8091 0000 		lds r24,EE_Parameter+9
 6161 3dc6 90E0      		ldi r25,lo8(0)
 6162 3dc8 6817      		cp r22,r24
 6163 3dca 7907      		cpc r23,r25
 6164 3dcc 04F4      		brge .L759
 6165 3dce 6B85      		ldd r22,Y+11
 6166 3dd0 7C85      		ldd r23,Y+12
 6167 3dd2 6817      		cp r22,r24
 6168 3dd4 7907      		cpc r23,r25
 6169 3dd6 04F4      		brge .L821
 6170 3dd8 8B85      		ldd r24,Y+11
 6171 3dda 9C85      		ldd r25,Y+12
 6172               	.L821:
 6173 3ddc 9093 0000 		sts (hoehenregler.2789)+1,r25
 6174 3de0 8093 0000 		sts hoehenregler.2789,r24
 6175               	.L759:
 6176 3de4 8091 0000 		lds r24,hoehenregler.2789
 6177 3de8 9091 0000 		lds r25,(hoehenregler.2789)+1
 6178 3dec AB85      		ldd r26,Y+11
 6179 3dee BC85      		ldd r27,Y+12
 6180 3df0 A817      		cp r26,r24
 6181 3df2 B907      		cpc r27,r25
 6182 3df4 04F4      		brge .L763
 6183 3df6 B093 0000 		sts (hoehenregler.2789)+1,r27
 6184 3dfa A093 0000 		sts hoehenregler.2789,r26
 6185               	.L763:
 6186 3dfe E091 0000 		lds r30,hoehenregler.2789
 6187 3e02 F091 0000 		lds r31,(hoehenregler.2789)+1
 6188 3e06 FC87      		std Y+12,r31
 6189 3e08 EB87      		std Y+11,r30
 6190               	.L746:
 6191 3e0a 8091 0000 		lds r24,MAX_GAS
 6192 3e0e 482E      		mov r4,r24
 6193 3e10 5524      		clr r5
 6194 3e12 C201      		movw r24,r4
 6195 3e14 4497      		sbiw r24,20
 6196 3e16 6B84      		ldd r6,Y+11
 6197 3e18 7C84      		ldd r7,Y+12
 6198 3e1a 8615      		cp r24,r6
 6199 3e1c 9705      		cpc r25,r7
 6200 3e1e 04F4      		brge .L765
 6201 3e20 3C01      		movw r6,r24
 6202               	.L765:
 6203 3e22 7092 0000 		sts (DebugOut+16)+1,r7
 6204 3e26 6092 0000 		sts DebugOut+16,r6
 6205 3e2a 8091 0000 		lds r24,MesswertGier
 6206 3e2e 9091 0000 		lds r25,(MesswertGier)+1
 6207 3e32 F4E1      		ldi r31,lo8(20)
 6208 3e34 6F16      		cp r6,r31
 6209 3e36 7104      		cpc r7,__zero_reg__
 6210 3e38 04F4      		brge .L766
 6211 3e3a 1E86      		std Y+14,__zero_reg__
 6212 3e3c 1D86      		std Y+13,__zero_reg__
 6213 3e3e 00C0      		rjmp .L768
 6214               	.L766:
 6215 3e40 BC01      		movw r22,r24
 6216 3e42 2B89      		ldd r18,Y+19
 6217 3e44 3C89      		ldd r19,Y+20
 6218 3e46 621B      		sub r22,r18
 6219 3e48 730B      		sbc r23,r19
 6220 3e4a 9301      		movw r18,r6
 6221 3e4c 3595      		asr r19
 6222 3e4e 2795      		ror r18
 6223 3e50 6217      		cp r22,r18
 6224 3e52 7307      		cpc r23,r19
 6225 3e54 04F4      		brge .L769
 6226 3e56 9B01      		movw r18,r22
 6227               	.L769:
 6228 3e58 C301      		movw r24,r6
 6229 3e5a 62E0      		ldi r22,lo8(2)
 6230 3e5c 70E0      		ldi r23,hi8(2)
 6231 3e5e 0E94 0000 		call __divmodhi4
 6232 3e62 7095      		com r23
 6233 3e64 6195      		neg r22
 6234 3e66 7F4F      		sbci r23,lo8(-1)
 6235 3e68 C901      		movw r24,r18
 6236 3e6a 2617      		cp r18,r22
 6237 3e6c 3707      		cpc r19,r23
 6238 3e6e 04F4      		brge .L770
 6239 3e70 CB01      		movw r24,r22
 6240               	.L770:
 6241 3e72 9201      		movw r18,r4
 6242 3e74 2619      		sub r18,r6
 6243 3e76 3709      		sbc r19,r7
 6244 3e78 2817      		cp r18,r24
 6245 3e7a 3907      		cpc r19,r25
 6246 3e7c 04F4      		brge .L771
 6247 3e7e C901      		movw r24,r18
 6248               	.L771:
 6249 3e80 9301      		movw r18,r6
 6250 3e82 2419      		sub r18,r4
 6251 3e84 3509      		sbc r19,r5
 6252 3e86 9E87      		std Y+14,r25
 6253 3e88 8D87      		std Y+13,r24
 6254 3e8a 8217      		cp r24,r18
 6255 3e8c 9307      		cpc r25,r19
 6256 3e8e 04F4      		brge .L768
 6257 3e90 3E87      		std Y+14,r19
 6258 3e92 2D87      		std Y+13,r18
 6259               	.L768:
 6260 3e94 2091 0000 		lds r18,MesswertNick
 6261 3e98 3091 0000 		lds r19,(MesswertNick)+1
 6262 3e9c 8090 0000 		lds r8,StickNick
 6263 3ea0 9090 0000 		lds r9,(StickNick)+1
 6264 3ea4 8091 0000 		lds r24,GPS_Nick
 6265 3ea8 9091 0000 		lds r25,(GPS_Nick)+1
 6266 3eac 881A      		sub r8,r24
 6267 3eae 990A      		sbc r9,r25
 6268 3eb0 2819      		sub r18,r8
 6269 3eb2 3909      		sbc r19,r9
 6270 3eb4 3093 0000 		sts (DiffNick)+1,r19
 6271 3eb8 2093 0000 		sts DiffNick,r18
 6272 3ebc 20E0      		ldi r18,lo8(0x0)
 6273 3ebe 30E0      		ldi r19,hi8(0x0)
 6274 3ec0 40E0      		ldi r20,hlo8(0x0)
 6275 3ec2 50E0      		ldi r21,hhi8(0x0)
 6276 3ec4 6B81      		ldd r22,Y+3
 6277 3ec6 7C81      		ldd r23,Y+4
 6278 3ec8 8D81      		ldd r24,Y+5
 6279 3eca 9E81      		ldd r25,Y+6
 6280 3ecc 0E94 0000 		call __nesf2
 6281 3ed0 8823      		tst r24
 6282 3ed2 01F0      		breq .L773
 6283 3ed4 E090 0000 		lds r14,IntegralNick
 6284 3ed8 F090 0000 		lds r15,(IntegralNick)+1
 6285 3edc 0091 0000 		lds r16,(IntegralNick)+2
 6286 3ee0 1091 0000 		lds r17,(IntegralNick)+3
 6287 3ee4 6091 0000 		lds r22,SummeNick.2777
 6288 3ee8 7091 0000 		lds r23,(SummeNick.2777)+1
 6289 3eec 8091 0000 		lds r24,(SummeNick.2777)+2
 6290 3ef0 9091 0000 		lds r25,(SummeNick.2777)+3
 6291 3ef4 0E94 0000 		call __floatsisf
 6292 3ef8 5B01      		movw r10,r22
 6293 3efa 6C01      		movw r12,r24
 6294 3efc C801      		movw r24,r16
 6295 3efe B701      		movw r22,r14
 6296 3f00 0E94 0000 		call __floatsisf
 6297 3f04 2B81      		ldd r18,Y+3
 6298 3f06 3C81      		ldd r19,Y+4
 6299 3f08 4D81      		ldd r20,Y+5
 6300 3f0a 5E81      		ldd r21,Y+6
 6301 3f0c 0E94 0000 		call __mulsf3
 6302 3f10 7B01      		movw r14,r22
 6303 3f12 8C01      		movw r16,r24
 6304 3f14 B401      		movw r22,r8
 6305 3f16 8827      		clr r24
 6306 3f18 77FD      		sbrc r23,7
 6307 3f1a 8095      		com r24
 6308 3f1c 982F      		mov r25,r24
 6309 3f1e 0E94 0000 		call __floatsisf
 6310 3f22 9B01      		movw r18,r22
 6311 3f24 AC01      		movw r20,r24
 6312 3f26 C801      		movw r24,r16
 6313 3f28 B701      		movw r22,r14
 6314 3f2a 0E94 0000 		call __subsf3
 6315 3f2e 9B01      		movw r18,r22
 6316 3f30 AC01      		movw r20,r24
 6317 3f32 C601      		movw r24,r12
 6318 3f34 B501      		movw r22,r10
 6319 3f36 0E94 0000 		call __addsf3
 6320 3f3a 0E94 0000 		call __fixsfsi
 6321 3f3e 6093 0000 		sts SummeNick.2777,r22
 6322 3f42 7093 0000 		sts (SummeNick.2777)+1,r23
 6323 3f46 8093 0000 		sts (SummeNick.2777)+2,r24
 6324 3f4a 9093 0000 		sts (SummeNick.2777)+3,r25
 6325 3f4e 00C0      		rjmp .L776
 6326               	.L773:
 6327 3f50 2091 0000 		lds r18,DiffNick
 6328 3f54 3091 0000 		lds r19,(DiffNick)+1
 6329 3f58 4427      		clr r20
 6330 3f5a 37FD      		sbrc r19,7
 6331 3f5c 4095      		com r20
 6332 3f5e 542F      		mov r21,r20
 6333 3f60 8091 0000 		lds r24,SummeNick.2777
 6334 3f64 9091 0000 		lds r25,(SummeNick.2777)+1
 6335 3f68 A091 0000 		lds r26,(SummeNick.2777)+2
 6336 3f6c B091 0000 		lds r27,(SummeNick.2777)+3
 6337 3f70 820F      		add r24,r18
 6338 3f72 931F      		adc r25,r19
 6339 3f74 A41F      		adc r26,r20
 6340 3f76 B51F      		adc r27,r21
 6341 3f78 8093 0000 		sts SummeNick.2777,r24
 6342 3f7c 9093 0000 		sts (SummeNick.2777)+1,r25
 6343 3f80 A093 0000 		sts (SummeNick.2777)+2,r26
 6344 3f84 B093 0000 		sts (SummeNick.2777)+3,r27
 6345               	.L776:
 6346 3f88 8091 0000 		lds r24,SummeNick.2777
 6347 3f8c 9091 0000 		lds r25,(SummeNick.2777)+1
 6348 3f90 A091 0000 		lds r26,(SummeNick.2777)+2
 6349 3f94 B091 0000 		lds r27,(SummeNick.2777)+3
 6350 3f98 8158      		subi r24,lo8(16001)
 6351 3f9a 9E43      		sbci r25,hi8(16001)
 6352 3f9c A040      		sbci r26,hlo8(16001)
 6353 3f9e B040      		sbci r27,hhi8(16001)
 6354 3fa0 04F0      		brlt .L777
 6355 3fa2 80E8      		ldi r24,lo8(16000)
 6356 3fa4 9EE3      		ldi r25,hi8(16000)
 6357 3fa6 A0E0      		ldi r26,hlo8(16000)
 6358 3fa8 B0E0      		ldi r27,hhi8(16000)
 6359 3faa 8093 0000 		sts SummeNick.2777,r24
 6360 3fae 9093 0000 		sts (SummeNick.2777)+1,r25
 6361 3fb2 A093 0000 		sts (SummeNick.2777)+2,r26
 6362 3fb6 B093 0000 		sts (SummeNick.2777)+3,r27
 6363               	.L777:
 6364 3fba 8091 0000 		lds r24,SummeNick.2777
 6365 3fbe 9091 0000 		lds r25,(SummeNick.2777)+1
 6366 3fc2 A091 0000 		lds r26,(SummeNick.2777)+2
 6367 3fc6 B091 0000 		lds r27,(SummeNick.2777)+3
 6368 3fca 8058      		subi r24,lo8(-16000)
 6369 3fcc 914C      		sbci r25,hi8(-16000)
 6370 3fce AF4F      		sbci r26,hlo8(-16000)
 6371 3fd0 BF4F      		sbci r27,hhi8(-16000)
 6372 3fd2 04F4      		brge .L779
 6373 3fd4 80E8      		ldi r24,lo8(-16000)
 6374 3fd6 91EC      		ldi r25,hi8(-16000)
 6375 3fd8 AFEF      		ldi r26,hlo8(-16000)
 6376 3fda BFEF      		ldi r27,hhi8(-16000)
 6377 3fdc 8093 0000 		sts SummeNick.2777,r24
 6378 3fe0 9093 0000 		sts (SummeNick.2777)+1,r25
 6379 3fe4 A093 0000 		sts (SummeNick.2777)+2,r26
 6380 3fe8 B093 0000 		sts (SummeNick.2777)+3,r27
 6381               	.L779:
 6382 3fec 6091 0000 		lds r22,DiffNick
 6383 3ff0 7091 0000 		lds r23,(DiffNick)+1
 6384 3ff4 8091 0000 		lds r24,Ki
 6385 3ff8 9091 0000 		lds r25,(Ki)+1
 6386 3ffc A091 0000 		lds r26,(Ki)+2
 6387 4000 B091 0000 		lds r27,(Ki)+3
 6388 4004 8F87      		std Y+15,r24
 6389 4006 988B      		std Y+16,r25
 6390 4008 A98B      		std Y+17,r26
 6391 400a BA8B      		std Y+18,r27
 6392 400c 8827      		clr r24
 6393 400e 77FD      		sbrc r23,7
 6394 4010 8095      		com r24
 6395 4012 982F      		mov r25,r24
 6396 4014 0E94 0000 		call __floatsisf
 6397 4018 7B01      		movw r14,r22
 6398 401a 8C01      		movw r16,r24
 6399 401c 6091 0000 		lds r22,SummeNick.2777
 6400 4020 7091 0000 		lds r23,(SummeNick.2777)+1
 6401 4024 8091 0000 		lds r24,(SummeNick.2777)+2
 6402 4028 9091 0000 		lds r25,(SummeNick.2777)+3
 6403 402c 0E94 0000 		call __floatsisf
 6404 4030 9B01      		movw r18,r22
 6405 4032 AC01      		movw r20,r24
 6406 4034 6F85      		ldd r22,Y+15
 6407 4036 7889      		ldd r23,Y+16
 6408 4038 8989      		ldd r24,Y+17
 6409 403a 9A89      		ldd r25,Y+18
 6410 403c 0E94 0000 		call __mulsf3
 6411 4040 9B01      		movw r18,r22
 6412 4042 AC01      		movw r20,r24
 6413 4044 C801      		movw r24,r16
 6414 4046 B701      		movw r22,r14
 6415 4048 0E94 0000 		call __addsf3
 6416 404c 0E94 0000 		call __fixsfsi
 6417 4050 7B01      		movw r14,r22
 6418 4052 8C01      		movw r16,r24
 6419 4054 6B01      		movw r12,r22
 6420 4056 8D85      		ldd r24,Y+13
 6421 4058 9E85      		ldd r25,Y+14
 6422 405a 97FF      		sbrs r25,7
 6423 405c 00C0      		rjmp .L781
 6424 405e 9095      		com r25
 6425 4060 8195      		neg r24
 6426 4062 9F4F      		sbci r25,lo8(-1)
 6427               	.L781:
 6428 4064 62E0      		ldi r22,lo8(2)
 6429 4066 70E0      		ldi r23,hi8(2)
 6430 4068 0E94 0000 		call __divmodhi4
 6431 406c 660D      		add r22,r6
 6432 406e 771D      		adc r23,r7
 6433 4070 8827      		clr r24
 6434 4072 77FD      		sbrc r23,7
 6435 4074 8095      		com r24
 6436 4076 982F      		mov r25,r24
 6437 4078 2091 0000 		lds r18,Parameter_DynamicStability
 6438 407c 30E0      		ldi r19,lo8(0)
 6439 407e 40E0      		ldi r20,lo8(0)
 6440 4080 50E0      		ldi r21,hi8(0)
 6441 4082 0E94 0000 		call __mulsi3
 6442 4086 20E4      		ldi r18,lo8(64)
 6443 4088 30E0      		ldi r19,hi8(64)
 6444 408a 40E0      		ldi r20,hlo8(64)
 6445 408c 50E0      		ldi r21,hhi8(64)
 6446 408e 0E94 0000 		call __divmodsi4
 6447 4092 3A87      		std Y+10,r19
 6448 4094 2987      		std Y+9,r18
 6449 4096 C216      		cp r12,r18
 6450 4098 D306      		cpc r13,r19
 6451 409a 04F4      		brge .L782
 6452 409c 9701      		movw r18,r14
 6453               	.L782:
 6454 409e 2984      		ldd r2,Y+9
 6455 40a0 3A84      		ldd r3,Y+10
 6456 40a2 3094      		com r3
 6457 40a4 2194      		neg r2
 6458 40a6 3108      		sbc r3,__zero_reg__
 6459 40a8 3394      		inc r3
 6460 40aa 2215      		cp r18,r2
 6461 40ac 3305      		cpc r19,r3
 6462 40ae 04F4      		brge .L783
 6463 40b0 9101      		movw r18,r2
 6464               	.L783:
 6465 40b2 4D85      		ldd r20,Y+13
 6466 40b4 5E85      		ldd r21,Y+14
 6467 40b6 460D      		add r20,r6
 6468 40b8 571D      		adc r21,r7
 6469 40ba CA01      		movw r24,r20
 6470 40bc 820F      		add r24,r18
 6471 40be 931F      		adc r25,r19
 6472 40c0 97FF      		sbrs r25,7
 6473 40c2 00C0      		rjmp .L784
 6474 40c4 60E0      		ldi r22,lo8(0)
 6475 40c6 70E0      		ldi r23,hi8(0)
 6476 40c8 00C0      		rjmp .L786
 6477               	.L784:
 6478 40ca BC01      		movw r22,r24
 6479 40cc 4816      		cp r4,r24
 6480 40ce 5906      		cpc r5,r25
 6481 40d0 04F4      		brge .L786
 6482 40d2 B201      		movw r22,r4
 6483               	.L786:
 6484 40d4 8091 0000 		lds r24,MIN_GAS
 6485 40d8 E82F      		mov r30,r24
 6486 40da F0E0      		ldi r31,lo8(0)
 6487 40dc FEA3      		std Y+38,r31
 6488 40de EDA3      		std Y+37,r30
 6489 40e0 CB01      		movw r24,r22
 6490 40e2 6E17      		cp r22,r30
 6491 40e4 7F07      		cpc r23,r31
 6492 40e6 04F4      		brge .L788
 6493 40e8 CF01      		movw r24,r30
 6494               	.L788:
 6495 40ea 8093 0000 		sts Motor_Vorne,r24
 6496 40ee 421B      		sub r20,r18
 6497 40f0 530B      		sbc r21,r19
 6498 40f2 9A01      		movw r18,r20
 6499 40f4 57FF      		sbrs r21,7
 6500 40f6 00C0      		rjmp .L789
 6501 40f8 20E0      		ldi r18,lo8(0)
 6502 40fa 30E0      		ldi r19,hi8(0)
 6503 40fc 00C0      		rjmp .L791
 6504               	.L789:
 6505 40fe 4416      		cp r4,r20
 6506 4100 5506      		cpc r5,r21
 6507 4102 04F4      		brge .L791
 6508 4104 9201      		movw r18,r4
 6509               	.L791:
 6510 4106 4DA1      		ldd r20,Y+37
 6511 4108 5EA1      		ldd r21,Y+38
 6512 410a 2417      		cp r18,r20
 6513 410c 3507      		cpc r19,r21
 6514 410e 04F4      		brge .L793
 6515 4110 9A01      		movw r18,r20
 6516               	.L793:
 6517 4112 2093 0000 		sts Motor_Hinten,r18
 6518 4116 8091 0000 		lds r24,MesswertRoll
 6519 411a 9091 0000 		lds r25,(MesswertRoll)+1
 6520 411e 2091 0000 		lds r18,GPS_Roll
 6521 4122 3091 0000 		lds r19,(GPS_Roll)+1
 6522 4126 8F80      		ldd r8,Y+7
 6523 4128 9884      		ldd r9,Y+8
 6524 412a 821A      		sub r8,r18
 6525 412c 930A      		sbc r9,r19
 6526 412e 8819      		sub r24,r8
 6527 4130 9909      		sbc r25,r9
 6528 4132 9093 0000 		sts (DiffRoll)+1,r25
 6529 4136 8093 0000 		sts DiffRoll,r24
 6530 413a 20E0      		ldi r18,lo8(0x0)
 6531 413c 30E0      		ldi r19,hi8(0x0)
 6532 413e 40E0      		ldi r20,hlo8(0x0)
 6533 4140 50E0      		ldi r21,hhi8(0x0)
 6534 4142 6B81      		ldd r22,Y+3
 6535 4144 7C81      		ldd r23,Y+4
 6536 4146 8D81      		ldd r24,Y+5
 6537 4148 9E81      		ldd r25,Y+6
 6538 414a 0E94 0000 		call __nesf2
 6539 414e 8823      		tst r24
 6540 4150 01F0      		breq .L794
 6541 4152 E090 0000 		lds r14,IntegralRoll
 6542 4156 F090 0000 		lds r15,(IntegralRoll)+1
 6543 415a 0091 0000 		lds r16,(IntegralRoll)+2
 6544 415e 1091 0000 		lds r17,(IntegralRoll)+3
 6545 4162 6091 0000 		lds r22,SummeRoll.2778
 6546 4166 7091 0000 		lds r23,(SummeRoll.2778)+1
 6547 416a 8091 0000 		lds r24,(SummeRoll.2778)+2
 6548 416e 9091 0000 		lds r25,(SummeRoll.2778)+3
 6549 4172 0E94 0000 		call __floatsisf
 6550 4176 5B01      		movw r10,r22
 6551 4178 6C01      		movw r12,r24
 6552 417a C801      		movw r24,r16
 6553 417c B701      		movw r22,r14
 6554 417e 0E94 0000 		call __floatsisf
 6555 4182 2B81      		ldd r18,Y+3
 6556 4184 3C81      		ldd r19,Y+4
 6557 4186 4D81      		ldd r20,Y+5
 6558 4188 5E81      		ldd r21,Y+6
 6559 418a 0E94 0000 		call __mulsf3
 6560 418e 7B01      		movw r14,r22
 6561 4190 8C01      		movw r16,r24
 6562 4192 B401      		movw r22,r8
 6563 4194 8827      		clr r24
 6564 4196 77FD      		sbrc r23,7
 6565 4198 8095      		com r24
 6566 419a 982F      		mov r25,r24
 6567 419c 0E94 0000 		call __floatsisf
 6568 41a0 9B01      		movw r18,r22
 6569 41a2 AC01      		movw r20,r24
 6570 41a4 C801      		movw r24,r16
 6571 41a6 B701      		movw r22,r14
 6572 41a8 0E94 0000 		call __subsf3
 6573 41ac 9B01      		movw r18,r22
 6574 41ae AC01      		movw r20,r24
 6575 41b0 C601      		movw r24,r12
 6576 41b2 B501      		movw r22,r10
 6577 41b4 0E94 0000 		call __addsf3
 6578 41b8 0E94 0000 		call __fixsfsi
 6579 41bc 6093 0000 		sts SummeRoll.2778,r22
 6580 41c0 7093 0000 		sts (SummeRoll.2778)+1,r23
 6581 41c4 8093 0000 		sts (SummeRoll.2778)+2,r24
 6582 41c8 9093 0000 		sts (SummeRoll.2778)+3,r25
 6583 41cc 00C0      		rjmp .L797
 6584               	.L794:
 6585 41ce 2091 0000 		lds r18,DiffRoll
 6586 41d2 3091 0000 		lds r19,(DiffRoll)+1
 6587 41d6 4427      		clr r20
 6588 41d8 37FD      		sbrc r19,7
 6589 41da 4095      		com r20
 6590 41dc 542F      		mov r21,r20
 6591 41de 8091 0000 		lds r24,SummeRoll.2778
 6592 41e2 9091 0000 		lds r25,(SummeRoll.2778)+1
 6593 41e6 A091 0000 		lds r26,(SummeRoll.2778)+2
 6594 41ea B091 0000 		lds r27,(SummeRoll.2778)+3
 6595 41ee 820F      		add r24,r18
 6596 41f0 931F      		adc r25,r19
 6597 41f2 A41F      		adc r26,r20
 6598 41f4 B51F      		adc r27,r21
 6599 41f6 8093 0000 		sts SummeRoll.2778,r24
 6600 41fa 9093 0000 		sts (SummeRoll.2778)+1,r25
 6601 41fe A093 0000 		sts (SummeRoll.2778)+2,r26
 6602 4202 B093 0000 		sts (SummeRoll.2778)+3,r27
 6603               	.L797:
 6604 4206 8091 0000 		lds r24,SummeRoll.2778
 6605 420a 9091 0000 		lds r25,(SummeRoll.2778)+1
 6606 420e A091 0000 		lds r26,(SummeRoll.2778)+2
 6607 4212 B091 0000 		lds r27,(SummeRoll.2778)+3
 6608 4216 8158      		subi r24,lo8(16001)
 6609 4218 9E43      		sbci r25,hi8(16001)
 6610 421a A040      		sbci r26,hlo8(16001)
 6611 421c B040      		sbci r27,hhi8(16001)
 6612 421e 04F0      		brlt .L798
 6613 4220 80E8      		ldi r24,lo8(16000)
 6614 4222 9EE3      		ldi r25,hi8(16000)
 6615 4224 A0E0      		ldi r26,hlo8(16000)
 6616 4226 B0E0      		ldi r27,hhi8(16000)
 6617 4228 8093 0000 		sts SummeRoll.2778,r24
 6618 422c 9093 0000 		sts (SummeRoll.2778)+1,r25
 6619 4230 A093 0000 		sts (SummeRoll.2778)+2,r26
 6620 4234 B093 0000 		sts (SummeRoll.2778)+3,r27
 6621               	.L798:
 6622 4238 8091 0000 		lds r24,SummeRoll.2778
 6623 423c 9091 0000 		lds r25,(SummeRoll.2778)+1
 6624 4240 A091 0000 		lds r26,(SummeRoll.2778)+2
 6625 4244 B091 0000 		lds r27,(SummeRoll.2778)+3
 6626 4248 8058      		subi r24,lo8(-16000)
 6627 424a 914C      		sbci r25,hi8(-16000)
 6628 424c AF4F      		sbci r26,hlo8(-16000)
 6629 424e BF4F      		sbci r27,hhi8(-16000)
 6630 4250 04F4      		brge .L800
 6631 4252 80E8      		ldi r24,lo8(-16000)
 6632 4254 91EC      		ldi r25,hi8(-16000)
 6633 4256 AFEF      		ldi r26,hlo8(-16000)
 6634 4258 BFEF      		ldi r27,hhi8(-16000)
 6635 425a 8093 0000 		sts SummeRoll.2778,r24
 6636 425e 9093 0000 		sts (SummeRoll.2778)+1,r25
 6637 4262 A093 0000 		sts (SummeRoll.2778)+2,r26
 6638 4266 B093 0000 		sts (SummeRoll.2778)+3,r27
 6639               	.L800:
 6640 426a 6091 0000 		lds r22,DiffRoll
 6641 426e 7091 0000 		lds r23,(DiffRoll)+1
 6642 4272 8827      		clr r24
 6643 4274 77FD      		sbrc r23,7
 6644 4276 8095      		com r24
 6645 4278 982F      		mov r25,r24
 6646 427a 0E94 0000 		call __floatsisf
 6647 427e 7B01      		movw r14,r22
 6648 4280 8C01      		movw r16,r24
 6649 4282 6091 0000 		lds r22,SummeRoll.2778
 6650 4286 7091 0000 		lds r23,(SummeRoll.2778)+1
 6651 428a 8091 0000 		lds r24,(SummeRoll.2778)+2
 6652 428e 9091 0000 		lds r25,(SummeRoll.2778)+3
 6653 4292 0E94 0000 		call __floatsisf
 6654 4296 9B01      		movw r18,r22
 6655 4298 AC01      		movw r20,r24
 6656 429a 6F85      		ldd r22,Y+15
 6657 429c 7889      		ldd r23,Y+16
 6658 429e 8989      		ldd r24,Y+17
 6659 42a0 9A89      		ldd r25,Y+18
 6660 42a2 0E94 0000 		call __mulsf3
 6661 42a6 9B01      		movw r18,r22
 6662 42a8 AC01      		movw r20,r24
 6663 42aa C801      		movw r24,r16
 6664 42ac B701      		movw r22,r14
 6665 42ae 0E94 0000 		call __addsf3
 6666 42b2 0E94 0000 		call __fixsfsi
 6667 42b6 2985      		ldd r18,Y+9
 6668 42b8 3A85      		ldd r19,Y+10
 6669 42ba 6217      		cp r22,r18
 6670 42bc 7307      		cpc r23,r19
 6671 42be 04F4      		brge .L802
 6672 42c0 9B01      		movw r18,r22
 6673               	.L802:
 6674 42c2 2215      		cp r18,r2
 6675 42c4 3305      		cpc r19,r3
 6676 42c6 04F4      		brge .L803
 6677 42c8 9101      		movw r18,r2
 6678               	.L803:
 6679 42ca B301      		movw r22,r6
 6680 42cc 8D85      		ldd r24,Y+13
 6681 42ce 9E85      		ldd r25,Y+14
 6682 42d0 681B      		sub r22,r24
 6683 42d2 790B      		sbc r23,r25
 6684 42d4 620F      		add r22,r18
 6685 42d6 731F      		adc r23,r19
 6686 42d8 77FF      		sbrs r23,7
 6687 42da 00C0      		rjmp .L804
 6688 42dc 60E0      		ldi r22,lo8(0)
 6689 42de 70E0      		ldi r23,hi8(0)
 6690 42e0 00C0      		rjmp .L806
 6691               	.L804:
 6692 42e2 4616      		cp r4,r22
 6693 42e4 5706      		cpc r5,r23
 6694 42e6 04F4      		brge .L806
 6695 42e8 B201      		movw r22,r4
 6696               	.L806:
 6697 42ea ADA1      		ldd r26,Y+37
 6698 42ec BEA1      		ldd r27,Y+38
 6699 42ee 6A17      		cp r22,r26
 6700 42f0 7B07      		cpc r23,r27
 6701 42f2 04F4      		brge .L808
 6702 42f4 BD01      		movw r22,r26
 6703               	.L808:
 6704 42f6 6093 0000 		sts Motor_Links,r22
 6705 42fa 621A      		sub r6,r18
 6706 42fc 730A      		sbc r7,r19
 6707 42fe 9301      		movw r18,r6
 6708 4300 ED85      		ldd r30,Y+13
 6709 4302 FE85      		ldd r31,Y+14
 6710 4304 2E1B      		sub r18,r30
 6711 4306 3F0B      		sbc r19,r31
 6712 4308 37FF      		sbrs r19,7
 6713 430a 00C0      		rjmp .L809
 6714 430c 20E0      		ldi r18,lo8(0)
 6715 430e 30E0      		ldi r19,hi8(0)
 6716 4310 00C0      		rjmp .L811
 6717               	.L809:
 6718 4312 4216      		cp r4,r18
 6719 4314 5306      		cpc r5,r19
 6720 4316 04F4      		brge .L811
 6721 4318 9201      		movw r18,r4
 6722               	.L811:
 6723 431a 4DA1      		ldd r20,Y+37
 6724 431c 5EA1      		ldd r21,Y+38
 6725 431e 2417      		cp r18,r20
 6726 4320 3507      		cpc r19,r21
 6727 4322 04F4      		brge .L813
 6728 4324 9A01      		movw r18,r20
 6729               	.L813:
 6730 4326 2093 0000 		sts Motor_Rechts,r18
 6731               	.L814:
 6732               	/* epilogue: frame size=38 */
 6733 432a A696      		adiw r28,38
 6734 432c 0FB6      		in __tmp_reg__,__SREG__
 6735 432e F894      		cli
 6736 4330 DEBF      		out __SP_H__,r29
 6737 4332 0FBE      		out __SREG__,__tmp_reg__
 6738 4334 CDBF      		out __SP_L__,r28
 6739 4336 DF91      		pop r29
 6740 4338 CF91      		pop r28
 6741 433a 1F91      		pop r17
 6742 433c 0F91      		pop r16
 6743 433e FF90      		pop r15
 6744 4340 EF90      		pop r14
 6745 4342 DF90      		pop r13
 6746 4344 CF90      		pop r12
 6747 4346 BF90      		pop r11
 6748 4348 AF90      		pop r10
 6749 434a 9F90      		pop r9
 6750 434c 8F90      		pop r8
 6751 434e 7F90      		pop r7
 6752 4350 6F90      		pop r6
 6753 4352 5F90      		pop r5
 6754 4354 4F90      		pop r4
 6755 4356 3F90      		pop r3
 6756 4358 2F90      		pop r2
 6757 435a 0895      		ret
 6758               	/* epilogue end (size=25) */
 6759               	/* function MotorRegler size 5183 (5132) */
 6761               	.global	I2CTimeout
 6762               		.data
 6765               	I2CTimeout:
 6766 0019 6400      		.word	100
 6767               	.global	AdNeutralNick
 6768               	.global	AdNeutralNick
 6769               		.section .bss
 6772               	AdNeutralNick:
 6773 0000 0000      		.skip 2,0
 6774               	.global	AdNeutralRoll
 6775               	.global	AdNeutralRoll
 6778               	AdNeutralRoll:
 6779 0002 0000      		.skip 2,0
 6780               	.global	AdNeutralGier
 6781               	.global	AdNeutralGier
 6784               	AdNeutralGier:
 6785 0004 0000      		.skip 2,0
 6786               	.global	StartNeutralRoll
 6787               	.global	StartNeutralRoll
 6790               	StartNeutralRoll:
 6791 0006 0000      		.skip 2,0
 6792               	.global	StartNeutralNick
 6793               	.global	StartNeutralNick
 6796               	StartNeutralNick:
 6797 0008 0000      		.skip 2,0
 6798               	.global	NeutralAccX
 6799               	.global	NeutralAccX
 6802               	NeutralAccX:
 6803 000a 0000      		.skip 2,0
 6804               	.global	NeutralAccY
 6805               	.global	NeutralAccY
 6808               	NeutralAccY:
 6809 000c 0000      		.skip 2,0
 6810               	.global	NeutralAccZ
 6811               	.global	NeutralAccZ
 6814               	NeutralAccZ:
 6815 000e 0000 0000 		.skip 4,0
 6816               	.global	CosinusNickWinkel
 6817               	.global	CosinusNickWinkel
 6820               	CosinusNickWinkel:
 6821 0012 00        		.skip 1,0
 6822               	.global	CosinusRollWinkel
 6823               	.global	CosinusRollWinkel
 6826               	CosinusRollWinkel:
 6827 0013 00        		.skip 1,0
 6828               	.global	IntegralNick
 6829               	.global	IntegralNick
 6832               	IntegralNick:
 6833 0014 0000 0000 		.skip 4,0
 6834               	.global	IntegralNick2
 6835               	.global	IntegralNick2
 6838               	IntegralNick2:
 6839 0018 0000 0000 		.skip 4,0
 6840               	.global	IntegralRoll
 6841               	.global	IntegralRoll
 6844               	IntegralRoll:
 6845 001c 0000 0000 		.skip 4,0
 6846               	.global	IntegralRoll2
 6847               	.global	IntegralRoll2
 6850               	IntegralRoll2:
 6851 0020 0000 0000 		.skip 4,0
 6852               	.global	IntegralAccNick
 6853               	.global	IntegralAccNick
 6856               	IntegralAccNick:
 6857 0024 0000 0000 		.skip 4,0
 6858               	.global	IntegralAccRoll
 6859               	.global	IntegralAccRoll
 6862               	IntegralAccRoll:
 6863 0028 0000 0000 		.skip 4,0
 6864               	.global	IntegralAccZ
 6865               	.global	IntegralAccZ
 6868               	IntegralAccZ:
 6869 002c 0000 0000 		.skip 4,0
 6870               	.global	Integral_Gier
 6871               	.global	Integral_Gier
 6874               	Integral_Gier:
 6875 0030 0000 0000 		.skip 4,0
 6876               	.global	Mess_IntegralNick
 6877               	.global	Mess_IntegralNick
 6880               	Mess_IntegralNick:
 6881 0034 0000 0000 		.skip 4,0
 6882               	.global	Mess_IntegralNick2
 6883               	.global	Mess_IntegralNick2
 6886               	Mess_IntegralNick2:
 6887 0038 0000 0000 		.skip 4,0
 6888               	.global	Mess_IntegralRoll
 6889               	.global	Mess_IntegralRoll
 6892               	Mess_IntegralRoll:
 6893 003c 0000 0000 		.skip 4,0
 6894               	.global	Mess_IntegralRoll2
 6895               	.global	Mess_IntegralRoll2
 6898               	Mess_IntegralRoll2:
 6899 0040 0000 0000 		.skip 4,0
 6900               	.global	Mess_Integral_Gier
 6901               	.global	Mess_Integral_Gier
 6904               	Mess_Integral_Gier:
 6905 0044 0000 0000 		.skip 4,0
 6906               	.global	Mess_Integral_Gier2
 6907               	.global	Mess_Integral_Gier2
 6910               	Mess_Integral_Gier2:
 6911 0048 0000 0000 		.skip 4,0
 6912               	.global	Mess_Integral_Hoch
 6913               	.global	Mess_Integral_Hoch
 6916               	Mess_Integral_Hoch:
 6917 004c 0000 0000 		.skip 4,0
 6918               	.global	KompassValue
 6919               	.global	KompassValue
 6922               	KompassValue:
 6923 0050 0000      		.skip 2,0
 6924               	.global	KompassStartwert
 6925               	.global	KompassStartwert
 6928               	KompassStartwert:
 6929 0052 0000      		.skip 2,0
 6930               	.global	KompassRichtung
 6931               	.global	KompassRichtung
 6934               	KompassRichtung:
 6935 0054 0000      		.skip 2,0
 6936               	.global	Notlandung
 6937               	.global	Notlandung
 6940               	Notlandung:
 6941 0056 00        		.skip 1,0
 6942               	.global	HoehenReglerAktiv
 6943               	.global	HoehenReglerAktiv
 6946               	HoehenReglerAktiv:
 6947 0057 00        		.skip 1,0
 6948               	.global	Umschlag180Nick
 6949               		.data
 6952               	Umschlag180Nick:
 6953 001b 90        		.byte	-112
 6954 001c D0        		.byte	-48
 6955 001d 03        		.byte	3
 6956 001e 00        		.byte	0
 6957               	.global	Umschlag180Roll
 6960               	Umschlag180Roll:
 6961 001f 90        		.byte	-112
 6962 0020 D0        		.byte	-48
 6963 0021 03        		.byte	3
 6964 0022 00        		.byte	0
 6965               	.global	Poti1
 6966               	.global	Poti1
 6967               		.section .bss
 6970               	Poti1:
 6971 0058 0000      		.skip 2,0
 6972               	.global	Poti2
 6973               	.global	Poti2
 6976               	Poti2:
 6977 005a 0000      		.skip 2,0
 6978               	.global	Poti3
 6979               	.global	Poti3
 6982               	Poti3:
 6983 005c 0000      		.skip 2,0
 6984               	.global	Poti4
 6985               	.global	Poti4
 6988               	Poti4:
 6989 005e 0000      		.skip 2,0
 6990               	.global	SenderOkay
 6991               	.global	SenderOkay
 6994               	SenderOkay:
 6995 0060 00        		.skip 1,0
 6996               	.global	StickNick
 6997               	.global	StickNick
 7000               	StickNick:
 7001 0061 0000      		.skip 2,0
 7002               	.global	StickRoll
 7003               	.global	StickRoll
 7006               	StickRoll:
 7007 0063 0000      		.skip 2,0
 7008               	.global	StickGier
 7009               	.global	StickGier
 7012               	StickGier:
 7013 0065 0000      		.skip 2,0
 7014               	.global	StickGas
 7015               	.global	StickGas
 7018               	StickGas:
 7019 0067 0000      		.skip 2,0
 7020               	.global	MotorenEin
 7021               	.global	MotorenEin
 7024               	MotorenEin:
 7025 0069 00        		.skip 1,0
 7026               	.global	HoehenWert
 7027               	.global	HoehenWert
 7030               	HoehenWert:
 7031 006a 0000      		.skip 2,0
 7032               	.global	SollHoehe
 7033               	.global	SollHoehe
 7036               	SollHoehe:
 7037 006c 0000      		.skip 2,0
 7038               	.global	LageKorrekturRoll
 7039               	.global	LageKorrekturRoll
 7042               	LageKorrekturRoll:
 7043 006e 0000      		.skip 2,0
 7044               	.global	LageKorrekturNick
 7045               	.global	LageKorrekturNick
 7048               	LageKorrekturNick:
 7049 0070 0000      		.skip 2,0
 7050               	.global	Ki
 7051               		.data
 7054               	Ki:
 7055 0023 17        		.byte	23
 7056 0024 B7        		.byte	-73
 7057 0025 D1        		.byte	-47
 7058 0026 38        		.byte	56
 7059               	.global	Looping_Nick
 7060               	.global	Looping_Nick
 7061               		.section .bss
 7064               	Looping_Nick:
 7065 0072 00        		.skip 1,0
 7066               	.global	Looping_Roll
 7067               	.global	Looping_Roll
 7070               	Looping_Roll:
 7071 0073 00        		.skip 1,0
 7072               	.global	Looping_Links
 7073               	.global	Looping_Links
 7076               	Looping_Links:
 7077 0074 00        		.skip 1,0
 7078               	.global	Looping_Rechts
 7079               	.global	Looping_Rechts
 7082               	Looping_Rechts:
 7083 0075 00        		.skip 1,0
 7084               	.global	Looping_Unten
 7085               	.global	Looping_Unten
 7088               	Looping_Unten:
 7089 0076 00        		.skip 1,0
 7090               	.global	Looping_Oben
 7091               	.global	Looping_Oben
 7094               	Looping_Oben:
 7095 0077 00        		.skip 1,0
 7096               	.global	Parameter_Luftdruck_D
 7097               		.data
 7100               	Parameter_Luftdruck_D:
 7101 0027 30        		.byte	48
 7102               	.global	Parameter_MaxHoehe
 7105               	Parameter_MaxHoehe:
 7106 0028 FB        		.byte	-5
 7107               	.global	Parameter_Hoehe_P
 7110               	Parameter_Hoehe_P:
 7111 0029 10        		.byte	16
 7112               	.global	Parameter_Hoehe_ACC_Wirkung
 7115               	Parameter_Hoehe_ACC_Wirkung:
 7116 002a 3A        		.byte	58
 7117               	.global	Parameter_KompassWirkung
 7120               	Parameter_KompassWirkung:
 7121 002b 40        		.byte	64
 7122               	.global	Parameter_Gyro_P
 7125               	Parameter_Gyro_P:
 7126 002c 96        		.byte	-106
 7127               	.global	Parameter_Gyro_I
 7130               	Parameter_Gyro_I:
 7131 002d 96        		.byte	-106
 7132               	.global	Parameter_Gier_P
 7135               	Parameter_Gier_P:
 7136 002e 02        		.byte	2
 7137               	.global	Parameter_I_Faktor
 7140               	Parameter_I_Faktor:
 7141 002f 0A        		.byte	10
 7142               	.global	Parameter_UserParam1
 7143               	.global	Parameter_UserParam1
 7144               		.section .bss
 7147               	Parameter_UserParam1:
 7148 0078 00        		.skip 1,0
 7149               	.global	Parameter_UserParam2
 7150               	.global	Parameter_UserParam2
 7153               	Parameter_UserParam2:
 7154 0079 00        		.skip 1,0
 7155               	.global	Parameter_UserParam3
 7156               	.global	Parameter_UserParam3
 7159               	Parameter_UserParam3:
 7160 007a 00        		.skip 1,0
 7161               	.global	Parameter_UserParam4
 7162               	.global	Parameter_UserParam4
 7165               	Parameter_UserParam4:
 7166 007b 00        		.skip 1,0
 7167               	.global	Parameter_UserParam5
 7168               	.global	Parameter_UserParam5
 7171               	Parameter_UserParam5:
 7172 007c 00        		.skip 1,0
 7173               	.global	Parameter_UserParam6
 7174               	.global	Parameter_UserParam6
 7177               	Parameter_UserParam6:
 7178 007d 00        		.skip 1,0
 7179               	.global	Parameter_UserParam7
 7180               	.global	Parameter_UserParam7
 7183               	Parameter_UserParam7:
 7184 007e 00        		.skip 1,0
 7185               	.global	Parameter_UserParam8
 7186               	.global	Parameter_UserParam8
 7189               	Parameter_UserParam8:
 7190 007f 00        		.skip 1,0
 7191               	.global	Parameter_ServoNickControl
 7192               		.data
 7195               	Parameter_ServoNickControl:
 7196 0030 64        		.byte	100
 7197               	.global	Parameter_LoopGasLimit
 7200               	Parameter_LoopGasLimit:
 7201 0031 46        		.byte	70
 7202               	.global	Parameter_AchsKopplung1
 7203               	.global	Parameter_AchsKopplung1
 7204               		.section .bss
 7207               	Parameter_AchsKopplung1:
 7208 0080 00        		.skip 1,0
 7209               	.global	Parameter_AchsGegenKopplung1
 7210               	.global	Parameter_AchsGegenKopplung1
 7213               	Parameter_AchsGegenKopplung1:
 7214 0081 00        		.skip 1,0
 7215               	.global	Parameter_DynamicStability
 7216               		.data
 7219               	Parameter_DynamicStability:
 7220 0032 64        		.byte	100
 7221               	.global	ExternStickNick
 7222               	.global	ExternStickNick
 7223               		.section .bss
 7226               	ExternStickNick:
 7227 0082 0000      		.skip 2,0
 7228               	.global	ExternStickRoll
 7229               	.global	ExternStickRoll
 7232               	ExternStickRoll:
 7233 0084 0000      		.skip 2,0
 7234               	.global	ExternStickGier
 7235               	.global	ExternStickGier
 7238               	ExternStickGier:
 7239 0086 0000      		.skip 2,0
 7240               	.global	ExternHoehenValue
 7241               		.data
 7244               	ExternHoehenValue:
 7245 0033 ECFF      		.word	-20
 7246               	.global	MaxStickNick
 7247               	.global	MaxStickNick
 7248               		.section .bss
 7251               	MaxStickNick:
 7252 0088 0000      		.skip 2,0
 7253               	.global	MaxStickRoll
 7254               	.global	MaxStickRoll
 7257               	MaxStickRoll:
 7258 008a 0000      		.skip 2,0
 7259               		.lcomm SignalSchlecht.2809,2
 7260               		.lcomm MittelIntegralRoll_Alt.2806,4
 7261               		.lcomm MittelIntegralNick_Alt.2805,4
 7262               		.lcomm last_r_n.2804,1
 7263               		.lcomm last_r_p.2803,1
 7264               		.lcomm last_n_n.2802,1
 7265               		.lcomm last_n_p.2801,1
 7266               		.lcomm cnt.2800,2
 7267               		.lcomm ausgleichRoll.2793,4
 7268               		.lcomm ausgleichNick.2792,4
 7269               		.lcomm NeueKompassRichtungMerken.2791,1
 7270               		.lcomm TimerWerteausgabe.2790,1
 7271               		.lcomm hoehenregler.2789,2
 7272               		.lcomm modell_fliegt.2788,2
 7273               		.lcomm delay_ausschalten.2787,1
 7274               		.lcomm delay_einschalten.2786,1
 7275               		.lcomm delay_neutral.2785,1
 7276               		.lcomm RcLostTimer.2784,2
 7277               		.lcomm IntegralFehlerRoll.2783,4
 7278               		.lcomm IntegralFehlerNick.2782,4
 7279               		.lcomm tmp_long2.2781,4
 7280               		.lcomm tmp_long.2780,4
 7281               		.lcomm sollGier.2779,4
 7282               		.lcomm SummeRoll.2778,4
 7283               		.lcomm SummeNick.2777,4
 7284               		.lcomm tmpl2.2410,4
 7285               		.lcomm tmpl.2409,4
 7286               		.comm DiffNick,2,1
 7287               		.comm DiffRoll,2,1
 7288               		.comm MesswertNick,2,1
 7289               		.comm MesswertRoll,2,1
 7290               		.comm MesswertGier,2,1
 7291               		.comm Mittelwert_AccNick,2,1
 7292               		.comm Mittelwert_AccRoll,2,1
 7293               		.comm Mittelwert_AccHoch,2,1
 7294               		.comm h,1,1
 7295               		.comm m,1,1
 7296               		.comm s,1,1
 7297               		.comm Motor_Vorne,1,1
 7298               		.comm Motor_Hinten,1,1
 7299               		.comm Motor_Rechts,1,1
 7300               		.comm Motor_Links,1,1
 7301               		.comm Count,1,1
 7302               		.comm MotorWert,5,1
 7303               		.comm EE_Parameter,70,1
 7304               		.comm MittelIntegralNick,4,1
 7305               		.comm MittelIntegralRoll,4,1
 7306               		.comm MittelIntegralNick2,4,1
 7307               		.comm MittelIntegralRoll2,4,1
 7308               		.comm MAX_GAS,1,1
 7309               		.comm MIN_GAS,1,1
 7310               		.comm GyroFaktor,4,1
 7311               		.comm IntegralFaktor,4,1
 7312               	/* File "fc.c": code 8718 = 0x220e (8606), prologues  53, epilogues  59 */
DEFINED SYMBOLS
                            *ABS*:00000000 fc.c
C:\DOCUME~1\ADMINI~1\LOCALS~1\Temp/cc4C0W3B.s:2      *ABS*:0000003f __SREG__
C:\DOCUME~1\ADMINI~1\LOCALS~1\Temp/cc4C0W3B.s:3      *ABS*:0000003e __SP_H__
C:\DOCUME~1\ADMINI~1\LOCALS~1\Temp/cc4C0W3B.s:4      *ABS*:0000003d __SP_L__
C:\DOCUME~1\ADMINI~1\LOCALS~1\Temp/cc4C0W3B.s:5      *ABS*:00000000 __tmp_reg__
C:\DOCUME~1\ADMINI~1\LOCALS~1\Temp/cc4C0W3B.s:6      *ABS*:00000001 __zero_reg__
C:\DOCUME~1\ADMINI~1\LOCALS~1\Temp/cc4C0W3B.s:12     .text:00000000 Mittelwert
C:\DOCUME~1\ADMINI~1\LOCALS~1\Temp/cc4C0W3B.s:6784   .bss:00000004 AdNeutralGier
                            *COM*:00000002 MesswertGier
C:\DOCUME~1\ADMINI~1\LOCALS~1\Temp/cc4C0W3B.s:6778   .bss:00000002 AdNeutralRoll
                            *COM*:00000002 MesswertRoll
C:\DOCUME~1\ADMINI~1\LOCALS~1\Temp/cc4C0W3B.s:6772   .bss:00000000 AdNeutralNick
                            *COM*:00000002 MesswertNick
                            *COM*:00000002 Mittelwert_AccNick
                            *COM*:00000002 Mittelwert_AccRoll
                            *COM*:00000002 Mittelwert_AccHoch
C:\DOCUME~1\ADMINI~1\LOCALS~1\Temp/cc4C0W3B.s:6856   .bss:00000024 IntegralAccNick
C:\DOCUME~1\ADMINI~1\LOCALS~1\Temp/cc4C0W3B.s:6862   .bss:00000028 IntegralAccRoll
C:\DOCUME~1\ADMINI~1\LOCALS~1\Temp/cc4C0W3B.s:6868   .bss:0000002c IntegralAccZ
C:\DOCUME~1\ADMINI~1\LOCALS~1\Temp/cc4C0W3B.s:6814   .bss:0000000e NeutralAccZ
C:\DOCUME~1\ADMINI~1\LOCALS~1\Temp/cc4C0W3B.s:6904   .bss:00000044 Mess_Integral_Gier
C:\DOCUME~1\ADMINI~1\LOCALS~1\Temp/cc4C0W3B.s:6910   .bss:00000048 Mess_Integral_Gier2
C:\DOCUME~1\ADMINI~1\LOCALS~1\Temp/cc4C0W3B.s:7064   .bss:00000072 Looping_Nick
C:\DOCUME~1\ADMINI~1\LOCALS~1\Temp/cc4C0W3B.s:7070   .bss:00000073 Looping_Roll
                            *COM*:00000046 EE_Parameter
C:\DOCUME~1\ADMINI~1\LOCALS~1\Temp/cc4C0W3B.s:6880   .bss:00000034 Mess_IntegralNick
C:\DOCUME~1\ADMINI~1\LOCALS~1\Temp/cc4C0W3B.s:7207   .bss:00000080 Parameter_AchsKopplung1
C:\DOCUME~1\ADMINI~1\LOCALS~1\Temp/cc4C0W3B.s:7284   .bss:000000cf tmpl.2409
C:\DOCUME~1\ADMINI~1\LOCALS~1\Temp/cc4C0W3B.s:6892   .bss:0000003c Mess_IntegralRoll
C:\DOCUME~1\ADMINI~1\LOCALS~1\Temp/cc4C0W3B.s:7283   .bss:000000cb tmpl2.2410
C:\DOCUME~1\ADMINI~1\LOCALS~1\Temp/cc4C0W3B.s:7213   .bss:00000081 Parameter_AchsGegenKopplung1
C:\DOCUME~1\ADMINI~1\LOCALS~1\Temp/cc4C0W3B.s:6898   .bss:00000040 Mess_IntegralRoll2
C:\DOCUME~1\ADMINI~1\LOCALS~1\Temp/cc4C0W3B.s:7042   .bss:0000006e LageKorrekturRoll
C:\DOCUME~1\ADMINI~1\LOCALS~1\Temp/cc4C0W3B.s:6960   .data:0000001f Umschlag180Roll
C:\DOCUME~1\ADMINI~1\LOCALS~1\Temp/cc4C0W3B.s:6886   .bss:00000038 Mess_IntegralNick2
C:\DOCUME~1\ADMINI~1\LOCALS~1\Temp/cc4C0W3B.s:7048   .bss:00000070 LageKorrekturNick
C:\DOCUME~1\ADMINI~1\LOCALS~1\Temp/cc4C0W3B.s:6952   .data:0000001b Umschlag180Nick
C:\DOCUME~1\ADMINI~1\LOCALS~1\Temp/cc4C0W3B.s:6874   .bss:00000030 Integral_Gier
C:\DOCUME~1\ADMINI~1\LOCALS~1\Temp/cc4C0W3B.s:6832   .bss:00000014 IntegralNick
C:\DOCUME~1\ADMINI~1\LOCALS~1\Temp/cc4C0W3B.s:6844   .bss:0000001c IntegralRoll
C:\DOCUME~1\ADMINI~1\LOCALS~1\Temp/cc4C0W3B.s:6838   .bss:00000018 IntegralNick2
C:\DOCUME~1\ADMINI~1\LOCALS~1\Temp/cc4C0W3B.s:6850   .bss:00000020 IntegralRoll2
C:\DOCUME~1\ADMINI~1\LOCALS~1\Temp/cc4C0W3B.s:6970   .bss:00000058 Poti1
C:\DOCUME~1\ADMINI~1\LOCALS~1\Temp/cc4C0W3B.s:6976   .bss:0000005a Poti2
C:\DOCUME~1\ADMINI~1\LOCALS~1\Temp/cc4C0W3B.s:6982   .bss:0000005c Poti3
C:\DOCUME~1\ADMINI~1\LOCALS~1\Temp/cc4C0W3B.s:6988   .bss:0000005e Poti4
C:\DOCUME~1\ADMINI~1\LOCALS~1\Temp/cc4C0W3B.s:1126   .text:00000bc8 CalibrierMittelwert
C:\DOCUME~1\ADMINI~1\LOCALS~1\Temp/cc4C0W3B.s:1406   .text:00000e62 ParameterZuordnung
C:\DOCUME~1\ADMINI~1\LOCALS~1\Temp/cc4C0W3B.s:7105   .data:00000028 Parameter_MaxHoehe
C:\DOCUME~1\ADMINI~1\LOCALS~1\Temp/cc4C0W3B.s:7100   .data:00000027 Parameter_Luftdruck_D
C:\DOCUME~1\ADMINI~1\LOCALS~1\Temp/cc4C0W3B.s:7110   .data:00000029 Parameter_Hoehe_P
C:\DOCUME~1\ADMINI~1\LOCALS~1\Temp/cc4C0W3B.s:7115   .data:0000002a Parameter_Hoehe_ACC_Wirkung
C:\DOCUME~1\ADMINI~1\LOCALS~1\Temp/cc4C0W3B.s:7120   .data:0000002b Parameter_KompassWirkung
C:\DOCUME~1\ADMINI~1\LOCALS~1\Temp/cc4C0W3B.s:7125   .data:0000002c Parameter_Gyro_P
C:\DOCUME~1\ADMINI~1\LOCALS~1\Temp/cc4C0W3B.s:7130   .data:0000002d Parameter_Gyro_I
C:\DOCUME~1\ADMINI~1\LOCALS~1\Temp/cc4C0W3B.s:7140   .data:0000002f Parameter_I_Faktor
C:\DOCUME~1\ADMINI~1\LOCALS~1\Temp/cc4C0W3B.s:7147   .bss:00000078 Parameter_UserParam1
C:\DOCUME~1\ADMINI~1\LOCALS~1\Temp/cc4C0W3B.s:7153   .bss:00000079 Parameter_UserParam2
C:\DOCUME~1\ADMINI~1\LOCALS~1\Temp/cc4C0W3B.s:7159   .bss:0000007a Parameter_UserParam3
C:\DOCUME~1\ADMINI~1\LOCALS~1\Temp/cc4C0W3B.s:7165   .bss:0000007b Parameter_UserParam4
C:\DOCUME~1\ADMINI~1\LOCALS~1\Temp/cc4C0W3B.s:7171   .bss:0000007c Parameter_UserParam5
C:\DOCUME~1\ADMINI~1\LOCALS~1\Temp/cc4C0W3B.s:7177   .bss:0000007d Parameter_UserParam6
C:\DOCUME~1\ADMINI~1\LOCALS~1\Temp/cc4C0W3B.s:7183   .bss:0000007e Parameter_UserParam7
C:\DOCUME~1\ADMINI~1\LOCALS~1\Temp/cc4C0W3B.s:7189   .bss:0000007f Parameter_UserParam8
C:\DOCUME~1\ADMINI~1\LOCALS~1\Temp/cc4C0W3B.s:7195   .data:00000030 Parameter_ServoNickControl
C:\DOCUME~1\ADMINI~1\LOCALS~1\Temp/cc4C0W3B.s:7200   .data:00000031 Parameter_LoopGasLimit
C:\DOCUME~1\ADMINI~1\LOCALS~1\Temp/cc4C0W3B.s:7219   .data:00000032 Parameter_DynamicStability
C:\DOCUME~1\ADMINI~1\LOCALS~1\Temp/cc4C0W3B.s:7054   .data:00000023 Ki
                            *COM*:00000001 MAX_GAS
                            *COM*:00000001 MIN_GAS
C:\DOCUME~1\ADMINI~1\LOCALS~1\Temp/cc4C0W3B.s:2151   .text:00001488 SendMotorData
C:\DOCUME~1\ADMINI~1\LOCALS~1\Temp/cc4C0W3B.s:7024   .bss:00000069 MotorenEin
                            *COM*:00000001 Motor_Hinten
                            *COM*:00000001 Motor_Vorne
                            *COM*:00000001 Motor_Rechts
                            *COM*:00000001 Motor_Links
C:\DOCUME~1\ADMINI~1\LOCALS~1\Temp/cc4C0W3B.s:2207   .text:00001516 SetNeutral
C:\DOCUME~1\ADMINI~1\LOCALS~1\Temp/cc4C0W3B.s:6802   .bss:0000000a NeutralAccX
C:\DOCUME~1\ADMINI~1\LOCALS~1\Temp/cc4C0W3B.s:6808   .bss:0000000c NeutralAccY
C:\DOCUME~1\ADMINI~1\LOCALS~1\Temp/cc4C0W3B.s:6790   .bss:00000006 StartNeutralRoll
C:\DOCUME~1\ADMINI~1\LOCALS~1\Temp/cc4C0W3B.s:6796   .bss:00000008 StartNeutralNick
C:\DOCUME~1\ADMINI~1\LOCALS~1\Temp/cc4C0W3B.s:6916   .bss:0000004c Mess_Integral_Hoch
C:\DOCUME~1\ADMINI~1\LOCALS~1\Temp/cc4C0W3B.s:6922   .bss:00000050 KompassValue
C:\DOCUME~1\ADMINI~1\LOCALS~1\Temp/cc4C0W3B.s:6928   .bss:00000052 KompassStartwert
C:\DOCUME~1\ADMINI~1\LOCALS~1\Temp/cc4C0W3B.s:7244   .data:00000033 ExternHoehenValue
C:\DOCUME~1\ADMINI~1\LOCALS~1\Temp/cc4C0W3B.s:2457   .text:000017d8 Piep
C:\DOCUME~1\ADMINI~1\LOCALS~1\Temp/cc4C0W3B.s:2491   .text:00001802 DefaultKonstanten3
C:\DOCUME~1\ADMINI~1\LOCALS~1\Temp/cc4C0W3B.s:2597   .text:00001924 DefaultKonstanten2
C:\DOCUME~1\ADMINI~1\LOCALS~1\Temp/cc4C0W3B.s:2703   .text:00001a46 DefaultKonstanten1
C:\DOCUME~1\ADMINI~1\LOCALS~1\Temp/cc4C0W3B.s:2804   .text:00001b68 MotorRegler
C:\DOCUME~1\ADMINI~1\LOCALS~1\Temp/cc4C0W3B.s:7018   .bss:00000067 StickGas
C:\DOCUME~1\ADMINI~1\LOCALS~1\Temp/cc4C0W3B.s:6994   .bss:00000060 SenderOkay
C:\DOCUME~1\ADMINI~1\LOCALS~1\Temp/cc4C0W3B.s:7275   .bss:000000ad RcLostTimer.2784
C:\DOCUME~1\ADMINI~1\LOCALS~1\Temp/cc4C0W3B.s:6940   .bss:00000056 Notlandung
C:\DOCUME~1\ADMINI~1\LOCALS~1\Temp/cc4C0W3B.s:7271   .bss:000000a8 modell_fliegt.2788
C:\DOCUME~1\ADMINI~1\LOCALS~1\Temp/cc4C0W3B.s:7282   .bss:000000c7 SummeNick.2777
C:\DOCUME~1\ADMINI~1\LOCALS~1\Temp/cc4C0W3B.s:7281   .bss:000000c3 SummeRoll.2778
C:\DOCUME~1\ADMINI~1\LOCALS~1\Temp/cc4C0W3B.s:7274   .bss:000000ac delay_neutral.2785
C:\DOCUME~1\ADMINI~1\LOCALS~1\Temp/cc4C0W3B.s:7273   .bss:000000ab delay_einschalten.2786
C:\DOCUME~1\ADMINI~1\LOCALS~1\Temp/cc4C0W3B.s:7280   .bss:000000bf sollGier.2779
C:\DOCUME~1\ADMINI~1\LOCALS~1\Temp/cc4C0W3B.s:7272   .bss:000000aa delay_ausschalten.2787
C:\DOCUME~1\ADMINI~1\LOCALS~1\Temp/cc4C0W3B.s:7000   .bss:00000061 StickNick
C:\DOCUME~1\ADMINI~1\LOCALS~1\Temp/cc4C0W3B.s:7006   .bss:00000063 StickRoll
C:\DOCUME~1\ADMINI~1\LOCALS~1\Temp/cc4C0W3B.s:7251   .bss:00000088 MaxStickNick
C:\DOCUME~1\ADMINI~1\LOCALS~1\Temp/cc4C0W3B.s:7257   .bss:0000008a MaxStickRoll
                            *COM*:00000004 GyroFaktor
                            *COM*:00000004 IntegralFaktor
C:\DOCUME~1\ADMINI~1\LOCALS~1\Temp/cc4C0W3B.s:7226   .bss:00000082 ExternStickNick
C:\DOCUME~1\ADMINI~1\LOCALS~1\Temp/cc4C0W3B.s:7232   .bss:00000084 ExternStickRoll
C:\DOCUME~1\ADMINI~1\LOCALS~1\Temp/cc4C0W3B.s:7238   .bss:00000086 ExternStickGier
C:\DOCUME~1\ADMINI~1\LOCALS~1\Temp/cc4C0W3B.s:7012   .bss:00000065 StickGier
C:\DOCUME~1\ADMINI~1\LOCALS~1\Temp/cc4C0W3B.s:7076   .bss:00000074 Looping_Links
C:\DOCUME~1\ADMINI~1\LOCALS~1\Temp/cc4C0W3B.s:7082   .bss:00000075 Looping_Rechts
C:\DOCUME~1\ADMINI~1\LOCALS~1\Temp/cc4C0W3B.s:7094   .bss:00000077 Looping_Oben
C:\DOCUME~1\ADMINI~1\LOCALS~1\Temp/cc4C0W3B.s:7088   .bss:00000076 Looping_Unten
                            *COM*:00000004 MittelIntegralNick
                            *COM*:00000004 MittelIntegralRoll
                            *COM*:00000004 MittelIntegralNick2
                            *COM*:00000004 MittelIntegralRoll2
C:\DOCUME~1\ADMINI~1\LOCALS~1\Temp/cc4C0W3B.s:7267   .bss:000000a0 ausgleichNick.2792
C:\DOCUME~1\ADMINI~1\LOCALS~1\Temp/cc4C0W3B.s:7279   .bss:000000bb tmp_long.2780
C:\DOCUME~1\ADMINI~1\LOCALS~1\Temp/cc4C0W3B.s:7278   .bss:000000b7 tmp_long2.2781
C:\DOCUME~1\ADMINI~1\LOCALS~1\Temp/cc4C0W3B.s:7277   .bss:000000b3 IntegralFehlerNick.2782
C:\DOCUME~1\ADMINI~1\LOCALS~1\Temp/cc4C0W3B.s:7276   .bss:000000af IntegralFehlerRoll.2783
C:\DOCUME~1\ADMINI~1\LOCALS~1\Temp/cc4C0W3B.s:7265   .bss:0000009a cnt.2800
C:\DOCUME~1\ADMINI~1\LOCALS~1\Temp/cc4C0W3B.s:7260   .bss:00000092 MittelIntegralNick_Alt.2805
C:\DOCUME~1\ADMINI~1\LOCALS~1\Temp/cc4C0W3B.s:7264   .bss:00000099 last_n_p.2801
C:\DOCUME~1\ADMINI~1\LOCALS~1\Temp/cc4C0W3B.s:7263   .bss:00000098 last_n_n.2802
C:\DOCUME~1\ADMINI~1\LOCALS~1\Temp/cc4C0W3B.s:7266   .bss:0000009c ausgleichRoll.2793
C:\DOCUME~1\ADMINI~1\LOCALS~1\Temp/cc4C0W3B.s:7259   .bss:0000008e MittelIntegralRoll_Alt.2806
C:\DOCUME~1\ADMINI~1\LOCALS~1\Temp/cc4C0W3B.s:7262   .bss:00000097 last_r_p.2803
C:\DOCUME~1\ADMINI~1\LOCALS~1\Temp/cc4C0W3B.s:7261   .bss:00000096 last_r_n.2804
C:\DOCUME~1\ADMINI~1\LOCALS~1\Temp/cc4C0W3B.s:7268   .bss:000000a4 NeueKompassRichtungMerken.2791
                             .bss:0000008c SignalSchlecht.2809
C:\DOCUME~1\ADMINI~1\LOCALS~1\Temp/cc4C0W3B.s:6934   .bss:00000054 KompassRichtung
C:\DOCUME~1\ADMINI~1\LOCALS~1\Temp/cc4C0W3B.s:7269   .bss:000000a5 TimerWerteausgabe.2790
C:\DOCUME~1\ADMINI~1\LOCALS~1\Temp/cc4C0W3B.s:7030   .bss:0000006a HoehenWert
C:\DOCUME~1\ADMINI~1\LOCALS~1\Temp/cc4C0W3B.s:7036   .bss:0000006c SollHoehe
C:\DOCUME~1\ADMINI~1\LOCALS~1\Temp/cc4C0W3B.s:6946   .bss:00000057 HoehenReglerAktiv
C:\DOCUME~1\ADMINI~1\LOCALS~1\Temp/cc4C0W3B.s:7270   .bss:000000a6 hoehenregler.2789
                            *COM*:00000002 DiffNick
                            *COM*:00000002 DiffRoll
C:\DOCUME~1\ADMINI~1\LOCALS~1\Temp/cc4C0W3B.s:6765   .data:00000019 I2CTimeout
C:\DOCUME~1\ADMINI~1\LOCALS~1\Temp/cc4C0W3B.s:6820   .bss:00000012 CosinusNickWinkel
C:\DOCUME~1\ADMINI~1\LOCALS~1\Temp/cc4C0W3B.s:6826   .bss:00000013 CosinusRollWinkel
C:\DOCUME~1\ADMINI~1\LOCALS~1\Temp/cc4C0W3B.s:7135   .data:0000002e Parameter_Gier_P
                            *COM*:00000001 h
                            *COM*:00000001 m
                            *COM*:00000001 s
                            *COM*:00000001 Count
                            *COM*:00000005 MotorWert

UNDEFINED SYMBOLS
__do_copy_data
__do_clear_bss
AdWertGier
AdWertRoll
AdWertNick
DebugOut
AdWertAccNick
__mulsi3
__divmodsi4
AdWertAccRoll
AdWertAccHoch
Aktuell_az
__floatsisf
__subsf3
__addsf3
__fixsfsi
PlatinenVersion
PPM_in
__floatunsisf
__mulsf3
MotorTest
twi_state
motor
i2c_start
Delay_ms_Mess
MessLuftdruck
SucheLuftruckOffset
EEPromArray
__eeprom_read_byte_1F2021
__divmodhi4
Luftdruck
StartLuftdruck
HoeheD
GPS_Neutral
beeptime
Delay_ms
PcZugriff
BeepMuster
__eeprom_write_byte_1F2021
GetActiveParamSetNumber
ReadParameterSet
NewPpmData
PPM_diff
__divsf3
DubWiseKeys
ExternControl
__ltsf2
ZaehlMessungen
__nesf2
UBat
__fixunssfsi
GPS_Nick
GPS_Roll
